ccopy_reg
_reconstructor
p0
(cfirma
rynek
p1
c__builtin__
object
p2
Ntp3
Rp4
(dp5
S'swiat'
p6
g0
(cgenerowanie_swiata
swiat
p7
g2
Ntp8
Rp9
(dp10
S'nodes'
p11
(dp12
(I7
I3
tp13
(lp14
(I7
I2
tp15
as(I14
I17
tp16
(lp17
(lp18
I15
aI17
aa(lp19
I13
aI17
aas(I11
I11
tp20
(lp21
(I11
I12
tp22
as(I21
I16
tp23
(lp24
(lp25
I20
aI16
aa(lp26
I21
aI17
aas(I16
I6
tp27
(lp28
(lp29
I16
aI7
aa(lp30
I16
aI5
aas(I15
I20
tp31
(lp32
(lp33
I16
aI20
aa(lp34
I14
aI20
aas(I14
I4
tp35
(lp36
(I14
I5
tp37
as(I13
I4
tp38
(lp39
(I13
I5
tp40
as(I12
I12
tp41
(lp42
(I11
I12
tp43
as(I17
I20
tp44
(lp45
(I16
I20
tp46
as(I22
I19
tp47
(lp48
(I22
I20
tp49
as(I13
I17
tp50
(lp51
(lp52
I14
aI17
aa(lp53
I12
aI17
aas(I20
I7
tp54
(lp55
(lp56
I21
aI7
aa(lp57
I19
aI7
aas(I18
I19
tp58
(lp59
(lp60
I18
aI20
aa(lp61
I18
aI18
aas(I21
I8
tp62
(lp63
(I22
I8
tp64
as(I20
I20
tp65
(lp66
(lp67
I21
aI20
aa(lp68
I19
aI20
aas(I21
I6
tp69
(lp70
(lp71
I21
aI7
aa(lp72
I21
aI5
aas(I3
I7
tp73
(lp74
(lp75
I4
aI7
aa(lp76
I2
aI7
aas(I2
I5
tp77
(lp78
(lp79
I2
aI6
aa(lp80
I2
aI4
aas(I8
I5
tp81
(lp82
(lp83
I9
aI5
aa(lp84
I8
aI4
aas(I16
I19
tp85
(lp86
(lp87
I16
aI20
aa(lp88
I16
aI18
aas(I5
I8
tp89
(lp90
(I5
I7
tp91
as(I19
I19
tp92
(lp93
(I18
I19
tp94
as(I10
I8
tp95
(lp96
(lp97
I10
aI9
aa(lp98
I10
aI7
aas(I6
I7
tp99
(lp100
(lp101
I7
aI7
aa(lp102
I5
aI7
aas(I11
I5
tp103
(lp104
(lp105
I12
aI5
aa(lp106
I10
aI5
aas(I10
I7
tp107
(lp108
(lp109
I11
aI7
aa(lp110
I9
aI7
aa(lp111
I10
aI8
aas(I21
I18
tp112
(lp113
(lp114
I21
aI19
aa(lp115
I21
aI17
aas(I7
I6
tp116
(lp117
(I7
I7
tp118
as(I14
I18
tp119
(lp120
(I14
I17
tp121
as(I12
I6
tp122
(lp123
(I12
I7
tp124
as(I11
I22
tp125
(lp126
(I12
I22
tp127
as(I20
I8
tp128
(lp129
(I20
I7
tp130
as(I15
I11
tp131
(lp132
(I16
I11
tp133
as(I13
I7
tp134
(lp135
(lp136
I14
aI7
aa(lp137
I12
aI7
aas(I12
I17
tp138
(lp139
(lp140
I13
aI17
aa(lp141
I12
aI18
aas(I18
I9
tp142
(lp143
(lp144
I19
aI9
aa(lp145
I18
aI10
aas(I15
I4
tp146
(lp147
(I15
I5
tp148
as(I13
I20
tp149
(lp150
(I12
I20
tp151
as(I18
I10
tp152
(lp153
(lp154
I18
aI11
aa(lp155
I18
aI9
aas(I18
I20
tp156
(lp157
(lp158
I19
aI20
aa(lp159
I18
aI19
aas(I8
I15
tp160
(lp161
(I9
I15
tp162
as(I22
I3
tp163
(lp164
(I22
I4
tp165
as(I3
I2
tp166
(lp167
(lp168
I4
aI2
aa(lp169
I2
aI2
aas(I2
I6
tp170
(lp171
(lp172
I2
aI7
aa(lp173
I2
aI5
aas(I9
I14
tp174
(lp175
(lp176
I9
aI15
aa(lp177
I9
aI13
aas(I8
I2
tp178
(lp179
(lp180
I7
aI2
aa(lp181
I8
aI3
aas(I10
I13
tp182
(lp183
(I9
I13
tp184
as(I9
I3
tp185
(lp186
(I8
I3
tp187
as(I9
I16
tp188
(lp189
(I9
I15
tp190
as(I7
I5
tp191
(lp192
(I8
I5
tp193
as(I14
I15
tp194
(lp195
(lp196
I15
aI15
aa(lp197
I13
aI15
aas(I12
I11
tp198
(lp199
(I12
I10
tp200
as(I11
I21
tp201
(lp202
(I12
I21
tp203
as(I17
I13
tp204
(lp205
(I16
I13
tp206
as(I15
I14
tp207
(lp208
(I15
I15
tp209
as(I19
I9
tp210
(lp211
(lp212
I20
aI9
aa(lp213
I18
aI9
aas(I13
I10
tp214
(lp215
(lp216
I14
aI10
aa(lp217
I12
aI10
aas(I12
I22
tp218
(lp219
(lp220
I13
aI22
aa(lp221
I12
aI21
aas(I14
I16
tp222
(lp223
(I14
I15
tp224
as(I17
I18
tp225
(lp226
(I18
I18
tp227
as(I21
I15
tp228
(lp229
(I21
I16
tp230
as(I16
I8
tp231
(lp232
(lp233
I16
aI9
aa(lp234
I16
aI7
aas(I20
I17
tp235
(lp236
(I21
I17
tp237
as(I8
I12
tp238
(lp239
(I9
I12
tp240
as(I22
I12
tp241
(lp242
(lp243
I21
aI12
aa(lp244
I22
aI13
aa(lp245
I22
aI11
aas(I9
I9
tp246
(lp247
(I10
I9
tp248
as(I20
I14
tp249
(lp250
(lp251
I21
aI14
aa(lp252
I19
aI14
aas(I16
I18
tp253
(lp254
(lp255
I16
aI19
aa(lp256
I16
aI17
aas(I19
I16
tp257
(lp258
(I18
I16
tp259
as(I10
I14
tp260
(lp261
(I10
I15
tp262
as(I14
I21
tp263
(lp264
(I14
I22
tp265
as(I11
I15
tp266
(lp267
(lp268
I12
aI15
aa(lp269
I10
aI15
aas(I21
I19
tp270
(lp271
(lp272
I21
aI20
aa(lp273
I21
aI18
aas(I7
I8
tp274
(lp275
(I7
I7
tp276
as(I14
I8
tp277
(lp278
(lp279
I14
aI9
aa(lp280
I14
aI7
aas(I12
I8
tp281
(lp282
(I12
I7
tp283
as(I11
I16
tp284
(lp285
(I11
I15
tp286
as(I20
I13
tp287
(lp288
(I20
I14
tp289
as(I17
I8
tp290
(lp291
(I16
I8
tp292
as(I15
I13
tp293
(lp294
(I16
I13
tp295
as(I19
I22
tp296
(lp297
(lp298
I20
aI22
aa(lp299
I18
aI22
aas(I18
I15
tp300
(lp301
(lp302
I18
aI16
aa(lp303
I18
aI14
aas(I22
I6
tp304
(lp305
(I21
I6
tp306
as(I22
I9
tp307
(lp308
(lp309
I22
aI10
aa(lp310
I22
aI8
aas(I20
I11
tp311
(lp312
(I20
I12
tp313
as(I9
I4
tp314
(lp315
(I9
I5
tp316
as(I16
I14
tp317
(lp318
(lp319
I16
aI15
aa(lp320
I16
aI13
aas(I16
I13
tp321
(lp322
(lp323
I16
aI14
aa(lp324
I16
aI12
aas(I21
I10
tp325
(lp326
(I22
I10
tp327
as(I20
I10
tp328
(lp329
(lp330
I20
aI9
aas(I7
I2
tp331
(lp332
(lp333
I8
aI2
aa(lp334
I6
aI2
aas(I14
I22
tp335
(lp336
(lp337
I15
aI22
aa(lp338
I13
aI22
aas(I11
I10
tp339
(lp340
(lp341
I12
aI10
aa(lp342
I10
aI10
aas(I17
I6
tp343
(lp344
(I17
I7
tp345
as(I16
I10
tp346
(lp347
(lp348
I16
aI11
aa(lp349
I16
aI9
aas(I14
I5
tp350
(lp351
(lp352
I15
aI5
aa(lp353
I13
aI5
aas(I20
I19
tp354
(lp355
(I20
I20
tp356
as(I19
I7
tp357
(lp358
(lp359
I20
aI7
aa(lp360
I18
aI7
aas(I17
I11
tp361
(lp362
(I16
I11
tp363
as(I22
I16
tp364
(lp365
(I21
I16
tp366
as(I13
I16
tp367
(lp368
(I13
I17
tp369
as(I19
I11
tp370
(lp371
(I19
I12
tp372
as(I19
I10
tp373
(lp374
(I19
I9
tp375
as(I18
I16
tp376
(lp377
(lp378
I18
aI17
aa(lp379
I18
aI15
aas(I22
I7
tp380
(lp381
(lp382
I21
aI7
aa(lp383
I22
aI8
aas(I21
I5
tp384
(lp385
(lp386
I21
aI6
aa(lp387
I21
aI4
aas(I3
I6
tp388
(lp389
(I2
I6
tp390
as(I2
I2
tp391
(lp392
(lp393
I3
aI2
aa(lp394
I2
aI3
aas(I8
I6
tp395
(lp396
(I8
I5
tp397
as(I21
I14
tp398
(lp399
(lp400
I22
aI14
aa(lp401
I20
aI14
aas(I22
I10
tp402
(lp403
(lp404
I22
aI11
aa(lp405
I22
aI9
aas(I10
I9
tp406
(lp407
(lp408
I10
aI10
aa(lp409
I10
aI8
aas(I9
I7
tp410
(lp411
(lp412
I10
aI7
aa(lp413
I8
aI7
aas(I16
I17
tp414
(lp415
(lp416
I15
aI17
aa(lp417
I16
aI18
aas(I19
I17
tp418
(lp419
(I18
I17
tp420
as(I11
I4
tp421
(lp422
(I11
I5
tp423
as(I10
I4
tp424
(lp425
(I10
I5
tp426
as(I16
I4
tp427
(lp428
(I16
I5
tp429
as(I14
I19
tp430
(lp431
(lp432
I14
aI20
aas(I22
I15
tp433
(lp434
(I22
I14
tp435
as(I12
I7
tp436
(lp437
(lp438
I13
aI7
aa(lp439
I11
aI7
aas(I11
I9
tp440
(lp441
(I11
I10
tp442
as(I15
I10
tp443
(lp444
(I16
I10
tp445
as(I14
I6
tp446
(lp447
(I14
I5
tp448
as(I13
I6
tp449
(lp450
(I13
I7
tp451
as(I12
I18
tp452
(lp453
(lp454
I12
aI19
aa(lp455
I12
aI17
aas(I18
I6
tp456
(lp457
(I18
I7
tp458
as(I17
I22
tp459
(lp460
(lp461
I18
aI22
aa(lp462
I16
aI22
aas(I15
I7
tp463
(lp464
(I16
I7
tp465
as(I13
I19
tp466
(lp467
(I14
I19
tp468
as(I20
I5
tp469
(lp470
(I21
I5
tp471
as(I18
I21
tp472
(lp473
(I18
I22
tp474
as(I3
I5
tp475
(lp476
(I2
I5
tp477
as(I2
I7
tp478
(lp479
(lp480
I3
aI7
aa(lp481
I2
aI8
aa(lp482
I2
aI6
aas(I9
I13
tp483
(lp484
(lp485
I9
aI14
aa(lp486
I9
aI12
aas(I8
I3
tp487
(lp488
(lp489
I8
aI4
aa(lp490
I8
aI2
aas(I21
I7
tp491
(lp492
(lp493
I22
aI7
aa(lp494
I20
aI7
aa(lp495
I21
aI6
aas(I4
I6
tp496
(lp497
(I4
I7
tp498
as(I10
I10
tp499
(lp500
(lp501
I11
aI10
aa(lp502
I10
aI9
aas(I9
I2
tp503
(lp504
(I8
I2
tp505
as(I15
I16
tp506
(lp507
(I15
I15
tp508
as(I5
I7
tp509
(lp510
(lp511
I6
aI7
aa(lp512
I4
aI7
aas(I7
I4
tp513
(lp514
(I8
I4
tp515
as(I20
I18
tp516
(lp517
(I21
I18
tp518
as(I12
I4
tp519
(lp520
(I12
I5
tp521
as(I11
I20
tp522
(lp523
(I12
I20
tp524
as(I17
I12
tp525
(lp526
(I18
I12
tp527
as(I15
I9
tp528
(lp529
(I14
I9
tp530
as(I13
I9
tp531
(lp532
(I14
I9
tp533
as(I19
I13
tp534
(lp535
(I19
I14
tp536
as(I20
I16
tp537
(lp538
(lp539
I21
aI16
aas(I18
I11
tp540
(lp541
(lp542
I18
aI12
aa(lp543
I18
aI10
aas(I17
I17
tp544
(lp545
(I18
I17
tp546
as(I13
I22
tp547
(lp548
(lp549
I14
aI22
aa(lp550
I12
aI22
aas(I19
I8
tp551
(lp552
(I19
I7
tp553
as(I18
I22
tp554
(lp555
(lp556
I19
aI22
aa(lp557
I17
aI22
aas(I8
I13
tp558
(lp559
(I9
I13
tp560
as(I22
I13
tp561
(lp562
(lp563
I22
aI14
aa(lp564
I22
aI12
aas(I4
I8
tp565
(lp566
(I4
I7
tp567
as(I2
I8
tp568
(lp569
(lp570
I2
aI9
aa(lp571
I2
aI7
aas(I9
I8
tp572
(lp573
(I9
I7
tp574
as(I21
I11
tp575
(lp576
(I22
I11
tp577
as(I10
I15
tp578
(lp579
(lp580
I11
aI15
aa(lp581
I9
aI15
aas(I6
I2
tp582
(lp583
(lp584
I7
aI2
aa(lp585
I5
aI2
aas(I19
I14
tp586
(lp587
(lp588
I20
aI14
aa(lp589
I18
aI14
aas(I11
I14
tp590
(lp591
(I11
I15
tp592
as(I15
I19
tp593
(lp594
(I16
I19
tp595
as(I14
I9
tp596
(lp597
(lp598
I14
aI10
aa(lp599
I14
aI8
aas(I12
I9
tp600
(lp601
(I12
I10
tp602
as(I11
I19
tp603
(lp604
(I12
I19
tp605
as(I17
I15
tp606
(lp607
(I16
I15
tp608
as(I15
I12
tp609
(lp610
(I16
I12
tp611
as(I22
I20
tp612
(lp613
(lp614
I21
aI20
aa(lp615
I22
aI21
aas(I21
I20
tp616
(lp617
(lp618
I22
aI20
aa(lp619
I20
aI20
aa(lp620
I21
aI19
aas(I12
I20
tp621
(lp622
(lp623
I12
aI21
aa(lp624
I12
aI19
aas(I21
I9
tp625
(lp626
(I22
I9
tp627
as(I18
I12
tp628
(lp629
(lp630
I19
aI12
aa(lp631
I18
aI11
aas(I16
I22
tp632
(lp633
(lp634
I17
aI22
aa(lp635
I15
aI22
aas(I19
I20
tp636
(lp637
(lp638
I20
aI20
aa(lp639
I18
aI20
aas(I22
I14
tp640
(lp641
(lp642
I21
aI14
aa(lp643
I22
aI13
aas(I9
I11
tp644
(lp645
(I9
I12
tp646
as(I17
I7
tp647
(lp648
(lp649
I18
aI7
aa(lp650
I16
aI7
aas(I20
I9
tp651
(lp652
(lp653
I19
aI9
aa(lp654
I20
aI10
aas(I16
I12
tp655
(lp656
(lp657
I16
aI13
aa(lp658
I16
aI11
aas(I16
I9
tp659
(lp660
(lp661
I16
aI10
aa(lp662
I16
aI8
aas(I11
I13
tp663
(lp664
(I11
I12
tp665
as(I17
I5
tp666
(lp667
(I16
I5
tp668
as(I15
I22
tp669
(lp670
(lp671
I16
aI22
aa(lp672
I14
aI22
aas(I14
I10
tp673
(lp674
(lp675
I13
aI10
aa(lp676
I14
aI9
aas(I12
I14
tp677
(lp678
(I12
I15
tp679
as(I19
I6
tp680
(lp681
(I19
I7
tp682
as(I17
I10
tp683
(lp684
(I18
I10
tp685
as(I22
I17
tp686
(lp687
(I21
I17
tp688
as(I13
I15
tp689
(lp690
(lp691
I14
aI15
aa(lp692
I12
aI15
aas(I18
I17
tp693
(lp694
(lp695
I18
aI18
aa(lp696
I18
aI16
aas(I21
I21
tp697
(lp698
(I21
I20
tp699
as(I22
I4
tp700
(lp701
(lp702
I21
aI4
aas(I21
I4
tp703
(lp704
(lp705
I22
aI4
aa(lp706
I21
aI5
aas(I3
I9
tp707
(lp708
(I2
I9
tp709
as(I2
I3
tp710
(lp711
(lp712
I2
aI4
aa(lp713
I2
aI2
aas(I8
I7
tp714
(lp715
(lp716
I9
aI7
aa(lp717
I7
aI7
aas(I22
I11
tp718
(lp719
(lp720
I22
aI12
aa(lp721
I22
aI10
aas(I4
I2
tp722
(lp723
(lp724
I5
aI2
aa(lp725
I3
aI2
aas(I9
I6
tp726
(lp727
(I9
I5
tp728
as(I21
I12
tp729
(lp730
(lp731
I22
aI12
aa(lp732
I20
aI12
aas(I20
I12
tp733
(lp734
(lp735
I21
aI12
aa(lp736
I19
aI12
aas(I5
I3
tp737
(lp738
(I5
I2
tp739
as(I11
I7
tp740
(lp741
(lp742
I12
aI7
aa(lp743
I10
aI7
aas(I10
I5
tp744
(lp745
(lp746
I11
aI5
aa(lp747
I9
aI5
aas(I20
I4
tp748
(lp749
(I21
I4
tp750
as(I16
I5
tp751
(lp752
(lp753
I15
aI5
aa(lp754
I16
aI6
aas(I6
I8
tp755
(lp756
(I6
I7
tp757
as(I11
I8
tp758
(lp759
(I11
I7
tp760
as(I10
I16
tp761
(lp762
(I10
I15
tp763
as(I15
I21
tp764
(lp765
(I15
I20
tp766
as(I14
I7
tp767
(lp768
(lp769
I13
aI7
aa(lp770
I14
aI8
aas(I13
I5
tp771
(lp772
(lp773
I14
aI5
aa(lp774
I12
aI5
aas(I12
I19
tp775
(lp776
(lp777
I12
aI20
aa(lp778
I12
aI18
aas(I18
I7
tp779
(lp780
(lp781
I19
aI7
aa(lp782
I17
aI7
aas(I17
I21
tp783
(lp784
(I17
I22
tp785
as(I15
I6
tp786
(lp787
(I16
I6
tp788
as(I22
I18
tp789
(lp790
(I21
I18
tp791
as(I13
I18
tp792
(lp793
(I13
I17
tp794
as(I20
I6
tp795
(lp796
(I21
I6
tp797
as(I21
I22
tp798
(lp799
(lp800
I22
aI22
aa(lp801
I20
aI22
aas(I18
I18
tp802
(lp803
(lp804
I18
aI19
aa(lp805
I18
aI17
aas(I16
I21
tp806
(lp807
(I16
I20
tp808
as(I19
I21
tp809
(lp810
(I19
I20
tp811
as(I3
I4
tp812
(lp813
(I2
I4
tp814
as(I2
I4
tp815
(lp816
(lp817
I2
aI5
aa(lp818
I2
aI3
aas(I9
I12
tp819
(lp820
(lp821
I10
aI12
aa(lp822
I9
aI13
aas(I8
I4
tp823
(lp824
(lp825
I8
aI5
aa(lp826
I8
aI3
aas(I4
I7
tp827
(lp828
(lp829
I5
aI7
aa(lp830
I3
aI7
aas(I10
I11
tp831
(lp832
(I10
I10
tp833
as(I19
I12
tp834
(lp835
(lp836
I20
aI12
aa(lp837
I18
aI12
aas(I6
I6
tp838
(lp839
(I6
I7
tp840
as(I5
I6
tp841
(lp842
(I5
I7
tp843
as(I10
I6
tp844
(lp845
(I10
I7
tp846
as(I7
I7
tp847
(lp848
(lp849
I8
aI7
aa(lp850
I6
aI7
aas(I12
I5
tp851
(lp852
(lp853
I13
aI5
aa(lp854
I11
aI5
aas(I19
I15
tp855
(lp856
(I19
I14
tp857
as(I15
I8
tp858
(lp859
(I16
I8
tp860
as(I13
I8
tp861
(lp862
(I14
I8
tp863
as(I12
I16
tp864
(lp865
(I12
I17
tp866
as(I18
I8
tp867
(lp868
(I18
I9
tp869
as(I17
I16
tp870
(lp871
(I18
I16
tp872
as(I15
I5
tp873
(lp874
(lp875
I16
aI5
aa(lp876
I14
aI5
aas(I13
I21
tp877
(lp878
(I12
I21
tp879
as(I20
I22
tp880
(lp881
(lp882
I21
aI22
aa(lp883
I19
aI22
aas(I8
I14
tp884
(lp885
(I9
I14
tp886
as(I3
I3
tp887
(lp888
(I3
I2
tp889
as(I2
I9
tp890
(lp891
(lp892
I2
aI8
aas(I9
I15
tp893
(lp894
(lp895
I10
aI15
aa(lp896
I9
aI14
aas(I10
I12
tp897
(lp898
(lp899
I11
aI12
aa(lp900
I9
aI12
aas(I21
I13
tp901
(lp902
(I21
I12
tp903
as(I6
I3
tp904
(lp905
(I6
I2
tp906
as(I16
I7
tp907
(lp908
(lp909
I17
aI7
aa(lp910
I16
aI8
aa(lp911
I16
aI6
aas(I15
I18
tp912
(lp913
(I16
I18
tp914
as(I14
I14
tp915
(lp916
(I14
I15
tp917
as(I12
I10
tp918
(lp919
(lp920
I13
aI10
aa(lp921
I11
aI10
aas(I11
I18
tp922
(lp923
(I12
I18
tp924
as(I17
I14
tp925
(lp926
(I18
I14
tp927
as(I15
I15
tp928
(lp929
(lp930
I16
aI15
aa(lp931
I14
aI15
aas(I22
I21
tp932
(lp933
(lp934
I22
aI22
aa(lp935
I22
aI20
aas(I13
I11
tp936
(lp937
(I13
I10
tp938
as(I12
I21
tp939
(lp940
(lp941
I12
aI22
aa(lp942
I12
aI20
aas(I18
I13
tp943
(lp944
(I18
I12
tp945
as(I17
I19
tp946
(lp947
(I16
I19
tp948
as(I16
I20
tp949
(lp950
(lp951
I15
aI20
aa(lp952
I16
aI19
aas(I16
I11
tp953
(lp954
(lp955
I16
aI12
aa(lp956
I16
aI10
aas(I19
I18
tp957
(lp958
(I18
I18
tp959
as(I2
I10
tp960
(lp961
(I2
I9
tp962
as(I9
I10
tp963
(lp964
(I10
I10
tp965
as(I16
I16
tp966
(lp967
(I16
I15
tp968
as(I21
I17
tp969
(lp970
(lp971
I21
aI18
aa(lp972
I21
aI16
aas(I14
I20
tp973
(lp974
(lp975
I15
aI20
aa(lp976
I14
aI19
aas(I11
I12
tp977
(lp978
(lp979
I10
aI12
aas(I20
I15
tp980
(lp981
(I20
I14
tp982
as(I15
I17
tp983
(lp984
(lp985
I16
aI17
aa(lp986
I14
aI17
aas(I14
I11
tp987
(lp988
(I14
I10
tp989
as(I12
I15
tp990
(lp991
(lp992
I13
aI15
aa(lp993
I11
aI15
aas(I11
I17
tp994
(lp995
(I12
I17
tp996
as(I17
I9
tp997
(lp998
(I18
I9
tp999
as(I22
I22
tp1000
(lp1001
(lp1002
I21
aI22
aa(lp1003
I22
aI21
aas(I13
I14
tp1004
(lp1005
(I13
I15
tp1006
as(I18
I14
tp1007
(lp1008
(lp1009
I19
aI14
aa(lp1010
I18
aI15
aas(I22
I5
tp1011
(lp1012
(I22
I4
tp1013
as(I21
I3
tp1014
(lp1015
(I21
I4
tp1016
as(I3
I8
tp1017
(lp1018
(I3
I7
tp1019
as(I20
I21
tp1020
(lp1021
(I20
I20
tp1022
as(I8
I8
tp1023
(lp1024
(I8
I7
tp1025
as(I22
I8
tp1026
(lp1027
(lp1028
I22
aI9
aa(lp1029
I22
aI7
aas(I4
I3
tp1030
(lp1031
(I4
I2
tp1032
as(I16
I15
tp1033
(lp1034
(lp1035
I15
aI15
aa(lp1036
I16
aI14
aas(I9
I5
tp1037
(lp1038
(lp1039
I10
aI5
aa(lp1040
I8
aI5
aas(I5
I2
tp1041
(lp1042
(lp1043
I6
aI2
aa(lp1044
I4
aI2
aas(I11
I6
tp1045
(lp1046
(I11
I7
tp1047
assS'mapa'
p1048
(lp1049
(lp1050
g0
(cgenerowanie_swiata
lokalizacja
p1051
g2
Ntp1052
Rp1053
(dp1054
S'y'
p1055
I0
sS'x'
p1056
I0
sS'droga'
p1057
(lp1058
sS'typ'
p1059
S'Pusty'
p1060
sbag0
(g1051
g2
Ntp1061
Rp1062
(dp1063
g1055
I0
sg1056
I1
sg1057
(lp1064
sg1059
g1060
sbag0
(g1051
g2
Ntp1065
Rp1066
(dp1067
g1055
I0
sg1056
I2
sg1057
(lp1068
sg1059
g1060
sbag0
(g1051
g2
Ntp1069
Rp1070
(dp1071
g1055
I0
sg1056
I3
sg1057
(lp1072
sg1059
g1060
sbag0
(g1051
g2
Ntp1073
Rp1074
(dp1075
g1055
I0
sg1056
I4
sg1057
(lp1076
sg1059
g1060
sbag0
(g1051
g2
Ntp1077
Rp1078
(dp1079
g1055
I0
sg1056
I5
sg1057
(lp1080
sg1059
g1060
sbag0
(g1051
g2
Ntp1081
Rp1082
(dp1083
g1055
I0
sg1056
I6
sg1057
(lp1084
sg1059
g1060
sbag0
(g1051
g2
Ntp1085
Rp1086
(dp1087
g1055
I0
sg1056
I7
sg1057
(lp1088
sg1059
g1060
sbag0
(g1051
g2
Ntp1089
Rp1090
(dp1091
g1055
I0
sg1056
I8
sg1057
(lp1092
sg1059
g1060
sbag0
(g1051
g2
Ntp1093
Rp1094
(dp1095
g1055
I0
sg1056
I9
sg1057
(lp1096
sg1059
g1060
sbag0
(g1051
g2
Ntp1097
Rp1098
(dp1099
g1055
I0
sg1056
I10
sg1057
(lp1100
sg1059
g1060
sbag0
(g1051
g2
Ntp1101
Rp1102
(dp1103
g1055
I0
sg1056
I11
sg1057
(lp1104
sg1059
g1060
sbag0
(g1051
g2
Ntp1105
Rp1106
(dp1107
g1055
I0
sg1056
I12
sg1057
(lp1108
sg1059
g1060
sbag0
(g1051
g2
Ntp1109
Rp1110
(dp1111
g1055
I0
sg1056
I13
sg1057
(lp1112
sg1059
g1060
sbag0
(g1051
g2
Ntp1113
Rp1114
(dp1115
g1055
I0
sg1056
I14
sg1057
(lp1116
sg1059
g1060
sbag0
(g1051
g2
Ntp1117
Rp1118
(dp1119
g1055
I0
sg1056
I15
sg1057
(lp1120
sg1059
g1060
sbag0
(g1051
g2
Ntp1121
Rp1122
(dp1123
g1055
I0
sg1056
I16
sg1057
(lp1124
sg1059
g1060
sbag0
(g1051
g2
Ntp1125
Rp1126
(dp1127
g1055
I0
sg1056
I17
sg1057
(lp1128
sg1059
g1060
sbag0
(g1051
g2
Ntp1129
Rp1130
(dp1131
g1055
I0
sg1056
I18
sg1057
(lp1132
sg1059
g1060
sbag0
(g1051
g2
Ntp1133
Rp1134
(dp1135
g1055
I0
sg1056
I19
sg1057
(lp1136
sg1059
g1060
sbag0
(g1051
g2
Ntp1137
Rp1138
(dp1139
g1055
I0
sg1056
I20
sg1057
(lp1140
sg1059
g1060
sbag0
(g1051
g2
Ntp1141
Rp1142
(dp1143
g1055
I0
sg1056
I21
sg1057
(lp1144
sg1059
g1060
sbag0
(g1051
g2
Ntp1145
Rp1146
(dp1147
g1055
I0
sg1056
I22
sg1057
(lp1148
sg1059
g1060
sbag0
(g1051
g2
Ntp1149
Rp1150
(dp1151
g1055
I0
sg1056
I23
sg1057
(lp1152
sg1059
g1060
sbag0
(g1051
g2
Ntp1153
Rp1154
(dp1155
g1055
I0
sg1056
I24
sg1057
(lp1156
sg1059
g1060
sbaa(lp1157
g0
(g1051
g2
Ntp1158
Rp1159
(dp1160
g1055
I1
sg1056
I0
sg1057
(lp1161
sg1059
g1060
sbag0
(g1051
g2
Ntp1162
Rp1163
(dp1164
g1055
I1
sg1056
I1
sg1057
(lp1165
sg1059
g1060
sbag0
(g1051
g2
Ntp1166
Rp1167
(dp1168
g1055
I1
sg1056
I2
sg1057
(lp1169
sg1059
g1060
sbag0
(g1051
g2
Ntp1170
Rp1171
(dp1172
g1055
I1
sg1056
I3
sg1057
(lp1173
sg1059
g1060
sbag0
(g1051
g2
Ntp1174
Rp1175
(dp1176
g1055
I1
sg1056
I4
sg1057
(lp1177
sg1059
g1060
sbag0
(g1051
g2
Ntp1178
Rp1179
(dp1180
g1055
I1
sg1056
I5
sg1057
(lp1181
sg1059
g1060
sbag0
(g1051
g2
Ntp1182
Rp1183
(dp1184
g1055
I1
sg1056
I6
sg1057
(lp1185
sg1059
g1060
sbag0
(g1051
g2
Ntp1186
Rp1187
(dp1188
g1055
I1
sg1056
I7
sg1057
(lp1189
sg1059
g1060
sbag0
(g1051
g2
Ntp1190
Rp1191
(dp1192
g1055
I1
sg1056
I8
sg1057
(lp1193
sg1059
g1060
sbag0
(g1051
g2
Ntp1194
Rp1195
(dp1196
g1055
I1
sg1056
I9
sg1057
(lp1197
sg1059
g1060
sbag0
(g1051
g2
Ntp1198
Rp1199
(dp1200
g1055
I1
sg1056
I10
sg1057
(lp1201
sg1059
g1060
sbag0
(g1051
g2
Ntp1202
Rp1203
(dp1204
g1055
I1
sg1056
I11
sg1057
(lp1205
sg1059
g1060
sbag0
(g1051
g2
Ntp1206
Rp1207
(dp1208
g1055
I1
sg1056
I12
sg1057
(lp1209
sg1059
g1060
sbag0
(g1051
g2
Ntp1210
Rp1211
(dp1212
g1055
I1
sg1056
I13
sg1057
(lp1213
sg1059
g1060
sbag0
(g1051
g2
Ntp1214
Rp1215
(dp1216
g1055
I1
sg1056
I14
sg1057
(lp1217
sg1059
g1060
sbag0
(g1051
g2
Ntp1218
Rp1219
(dp1220
g1055
I1
sg1056
I15
sg1057
(lp1221
sg1059
g1060
sbag0
(g1051
g2
Ntp1222
Rp1223
(dp1224
g1055
I1
sg1056
I16
sg1057
(lp1225
sg1059
g1060
sbag0
(g1051
g2
Ntp1226
Rp1227
(dp1228
g1055
I1
sg1056
I17
sg1057
(lp1229
sg1059
g1060
sbag0
(g1051
g2
Ntp1230
Rp1231
(dp1232
g1055
I1
sg1056
I18
sg1057
(lp1233
sg1059
g1060
sbag0
(g1051
g2
Ntp1234
Rp1235
(dp1236
g1055
I1
sg1056
I19
sg1057
(lp1237
sg1059
g1060
sbag0
(g1051
g2
Ntp1238
Rp1239
(dp1240
g1055
I1
sg1056
I20
sg1057
(lp1241
sg1059
g1060
sbag0
(g1051
g2
Ntp1242
Rp1243
(dp1244
g1055
I1
sg1056
I21
sg1057
(lp1245
sg1059
g1060
sbag0
(g1051
g2
Ntp1246
Rp1247
(dp1248
g1055
I1
sg1056
I22
sg1057
(lp1249
sg1059
g1060
sbag0
(g1051
g2
Ntp1250
Rp1251
(dp1252
g1055
I1
sg1056
I23
sg1057
(lp1253
sg1059
g1060
sbag0
(g1051
g2
Ntp1254
Rp1255
(dp1256
g1055
I1
sg1056
I24
sg1057
(lp1257
sg1059
g1060
sbaa(lp1258
g0
(g1051
g2
Ntp1259
Rp1260
(dp1261
g1055
I2
sg1056
I0
sg1057
(lp1262
sg1059
g1060
sbag0
(g1051
g2
Ntp1263
Rp1264
(dp1265
g1055
I2
sg1056
I1
sg1057
(lp1266
sg1059
g1060
sbag0
(g1051
g2
Ntp1267
Rp1268
(dp1269
g1055
I2
sg1056
I2
sg1057
g392
sg1059
S'Droga'
p1270
sbag0
(g1051
g2
Ntp1271
Rp1272
(dp1273
g1055
I2
sg1056
I3
sg1057
g711
sg1059
g1270
sbag0
(g1051
g2
Ntp1274
Rp1275
(dp1276
g1055
I2
sg1056
I4
sg1057
g816
sg1059
g1270
sbag0
(g1051
g2
Ntp1277
Rp1278
(dp1279
g1055
I2
sg1056
I5
sg1057
g78
sg1059
g1270
sbag0
(g1051
g2
Ntp1280
Rp1281
(dp1282
g1055
I2
sg1056
I6
sg1057
g171
sg1059
g1270
sbag0
(g1051
g2
Ntp1283
Rp1284
(dp1285
g1055
I2
sg1056
I7
sg1057
g479
sg1059
g1270
sbag0
(g1051
g2
Ntp1286
Rp1287
(dp1288
g1055
I2
sg1056
I8
sg1057
g569
sg1059
g1270
sbag0
(g1051
g2
Ntp1289
Rp1290
(dp1291
g1055
I2
sg1056
I9
sg1057
g891
sg1059
g1270
sbag0
(g1051
g2
Ntp1292
Rp1293
(dp1294
g1055
I10
sg1056
I2
sg1057
g961
sg1059
S'Przestrzen komercyjna'
p1295
sbag0
(g1051
g2
Ntp1296
Rp1297
(dp1298
g1055
I2
sg1056
I11
sg1057
(lp1299
sg1059
g1060
sbag0
(g1051
g2
Ntp1300
Rp1301
(dp1302
g1055
I2
sg1056
I12
sg1057
(lp1303
sg1059
g1060
sbag0
(g1051
g2
Ntp1304
Rp1305
(dp1306
g1055
I2
sg1056
I13
sg1057
(lp1307
sg1059
g1060
sbag0
(g1051
g2
Ntp1308
Rp1309
(dp1310
g1055
I2
sg1056
I14
sg1057
(lp1311
sg1059
g1060
sbag0
(g1051
g2
Ntp1312
Rp1313
(dp1314
g1055
I2
sg1056
I15
sg1057
(lp1315
sg1059
g1060
sbag0
(g1051
g2
Ntp1316
Rp1317
(dp1318
g1055
I2
sg1056
I16
sg1057
(lp1319
sg1059
g1060
sbag0
(g1051
g2
Ntp1320
Rp1321
(dp1322
g1055
I2
sg1056
I17
sg1057
(lp1323
sg1059
g1060
sbag0
(g1051
g2
Ntp1324
Rp1325
(dp1326
g1055
I2
sg1056
I18
sg1057
(lp1327
sg1059
g1060
sbag0
(g1051
g2
Ntp1328
Rp1329
(dp1330
g1055
I2
sg1056
I19
sg1057
(lp1331
sg1059
g1060
sbag0
(g1051
g2
Ntp1332
Rp1333
(dp1334
g1055
I2
sg1056
I20
sg1057
(lp1335
sg1059
g1060
sbag0
(g1051
g2
Ntp1336
Rp1337
(dp1338
g1055
I2
sg1056
I21
sg1057
(lp1339
sg1059
g1060
sbag0
(g1051
g2
Ntp1340
Rp1341
(dp1342
g1055
I2
sg1056
I22
sg1057
(lp1343
sg1059
g1060
sbag0
(g1051
g2
Ntp1344
Rp1345
(dp1346
g1055
I2
sg1056
I23
sg1057
(lp1347
sg1059
g1060
sbag0
(g1051
g2
Ntp1348
Rp1349
(dp1350
g1055
I2
sg1056
I24
sg1057
(lp1351
sg1059
g1060
sbaa(lp1352
g0
(g1051
g2
Ntp1353
Rp1354
(dp1355
g1055
I3
sg1056
I0
sg1057
(lp1356
sg1059
g1060
sbag0
(g1051
g2
Ntp1357
Rp1358
(dp1359
g1055
I3
sg1056
I1
sg1057
(lp1360
sg1059
g1060
sbag0
(g1051
g2
Ntp1361
Rp1362
(dp1363
g1055
I3
sg1056
I2
sg1057
g167
sg1059
g1270
sbag0
(g1051
g2
Ntp1364
Rp1365
(dp1366
g1055
I3
sg1056
I3
sg1057
g888
sg1059
S'Praca'
p1367
sbag0
(g1051
g2
Ntp1368
Rp1369
(dp1370
g1055
I4
sg1056
I3
sg1057
g813
sg1059
g1295
sbag0
(g1051
g2
Ntp1371
Rp1372
(dp1373
g1055
I5
sg1056
I3
sg1057
g476
sg1059
g1295
sbag0
(g1051
g2
Ntp1374
Rp1375
(dp1376
g1055
I6
sg1056
I3
sg1057
g389
sg1059
g1367
sbag0
(g1051
g2
Ntp1377
Rp1378
(dp1379
g1055
I3
sg1056
I7
sg1057
g74
sg1059
g1270
sbag0
(g1051
g2
Ntp1380
Rp1381
(dp1382
g1055
I8
sg1056
I3
sg1057
g1018
sg1059
S'Dom'
p1383
sbag0
(g1051
g2
Ntp1384
Rp1385
(dp1386
g1055
I9
sg1056
I3
sg1057
g708
sg1059
g1383
sbag0
(g1051
g2
Ntp1387
Rp1388
(dp1389
g1055
I3
sg1056
I10
sg1057
(lp1390
sg1059
g1060
sbag0
(g1051
g2
Ntp1391
Rp1392
(dp1393
g1055
I3
sg1056
I11
sg1057
(lp1394
sg1059
g1060
sbag0
(g1051
g2
Ntp1395
Rp1396
(dp1397
g1055
I3
sg1056
I12
sg1057
(lp1398
sg1059
g1060
sbag0
(g1051
g2
Ntp1399
Rp1400
(dp1401
g1055
I3
sg1056
I13
sg1057
(lp1402
sg1059
g1060
sbag0
(g1051
g2
Ntp1403
Rp1404
(dp1405
g1055
I3
sg1056
I14
sg1057
(lp1406
sg1059
g1060
sbag0
(g1051
g2
Ntp1407
Rp1408
(dp1409
g1055
I3
sg1056
I15
sg1057
(lp1410
sg1059
g1060
sbag0
(g1051
g2
Ntp1411
Rp1412
(dp1413
g1055
I3
sg1056
I16
sg1057
(lp1414
sg1059
g1060
sbag0
(g1051
g2
Ntp1415
Rp1416
(dp1417
g1055
I3
sg1056
I17
sg1057
(lp1418
sg1059
g1060
sbag0
(g1051
g2
Ntp1419
Rp1420
(dp1421
g1055
I3
sg1056
I18
sg1057
(lp1422
sg1059
g1060
sbag0
(g1051
g2
Ntp1423
Rp1424
(dp1425
g1055
I3
sg1056
I19
sg1057
(lp1426
sg1059
g1060
sbag0
(g1051
g2
Ntp1427
Rp1428
(dp1429
g1055
I3
sg1056
I20
sg1057
(lp1430
sg1059
g1060
sbag0
(g1051
g2
Ntp1431
Rp1432
(dp1433
g1055
I3
sg1056
I21
sg1057
(lp1434
sg1059
g1060
sbag0
(g1051
g2
Ntp1435
Rp1436
(dp1437
g1055
I3
sg1056
I22
sg1057
(lp1438
sg1059
g1060
sbag0
(g1051
g2
Ntp1439
Rp1440
(dp1441
g1055
I3
sg1056
I23
sg1057
(lp1442
sg1059
g1060
sbag0
(g1051
g2
Ntp1443
Rp1444
(dp1445
g1055
I3
sg1056
I24
sg1057
(lp1446
sg1059
g1060
sbaa(lp1447
g0
(g1051
g2
Ntp1448
Rp1449
(dp1450
g1055
I4
sg1056
I0
sg1057
(lp1451
sg1059
g1060
sbag0
(g1051
g2
Ntp1452
Rp1453
(dp1454
g1055
I4
sg1056
I1
sg1057
(lp1455
sg1059
g1060
sbag0
(g1051
g2
Ntp1456
Rp1457
(dp1458
g1055
I4
sg1056
I2
sg1057
g723
sg1059
g1270
sbag0
(g1051
g2
Ntp1459
Rp1460
(dp1461
g1055
I3
sg1056
I4
sg1057
g1031
sg1059
S'Magazyn'
p1462
sbag0
(g1051
g2
Ntp1463
Rp1464
(dp1465
g1055
I4
sg1056
I4
sg1057
(lp1466
sg1059
g1060
sbag0
(g1051
g2
Ntp1467
Rp1468
(dp1469
g1055
I4
sg1056
I5
sg1057
(lp1470
sg1059
g1060
sbag0
(g1051
g2
Ntp1471
Rp1472
(dp1473
g1055
I6
sg1056
I4
sg1057
g497
sg1059
g1383
sbag0
(g1051
g2
Ntp1474
Rp1475
(dp1476
g1055
I4
sg1056
I7
sg1057
g828
sg1059
g1270
sbag0
(g1051
g2
Ntp1477
Rp1478
(dp1479
g1055
I8
sg1056
I4
sg1057
g566
sg1059
g1295
sbag0
(g1051
g2
Ntp1480
Rp1481
(dp1482
g1055
I4
sg1056
I9
sg1057
(lp1483
sg1059
g1060
sbag0
(g1051
g2
Ntp1484
Rp1485
(dp1486
g1055
I4
sg1056
I10
sg1057
(lp1487
sg1059
g1060
sbag0
(g1051
g2
Ntp1488
Rp1489
(dp1490
g1055
I4
sg1056
I11
sg1057
(lp1491
sg1059
g1060
sbag0
(g1051
g2
Ntp1492
Rp1493
(dp1494
g1055
I4
sg1056
I12
sg1057
(lp1495
sg1059
g1060
sbag0
(g1051
g2
Ntp1496
Rp1497
(dp1498
g1055
I4
sg1056
I13
sg1057
(lp1499
sg1059
g1060
sbag0
(g1051
g2
Ntp1500
Rp1501
(dp1502
g1055
I4
sg1056
I14
sg1057
(lp1503
sg1059
g1060
sbag0
(g1051
g2
Ntp1504
Rp1505
(dp1506
g1055
I4
sg1056
I15
sg1057
(lp1507
sg1059
g1060
sbag0
(g1051
g2
Ntp1508
Rp1509
(dp1510
g1055
I4
sg1056
I16
sg1057
(lp1511
sg1059
g1060
sbag0
(g1051
g2
Ntp1512
Rp1513
(dp1514
g1055
I4
sg1056
I17
sg1057
(lp1515
sg1059
g1060
sbag0
(g1051
g2
Ntp1516
Rp1517
(dp1518
g1055
I4
sg1056
I18
sg1057
(lp1519
sg1059
g1060
sbag0
(g1051
g2
Ntp1520
Rp1521
(dp1522
g1055
I4
sg1056
I19
sg1057
(lp1523
sg1059
g1060
sbag0
(g1051
g2
Ntp1524
Rp1525
(dp1526
g1055
I4
sg1056
I20
sg1057
(lp1527
sg1059
g1060
sbag0
(g1051
g2
Ntp1528
Rp1529
(dp1530
g1055
I4
sg1056
I21
sg1057
(lp1531
sg1059
g1060
sbag0
(g1051
g2
Ntp1532
Rp1533
(dp1534
g1055
I4
sg1056
I22
sg1057
(lp1535
sg1059
g1060
sbag0
(g1051
g2
Ntp1536
Rp1537
(dp1538
g1055
I4
sg1056
I23
sg1057
(lp1539
sg1059
g1060
sbag0
(g1051
g2
Ntp1540
Rp1541
(dp1542
g1055
I4
sg1056
I24
sg1057
(lp1543
sg1059
g1060
sbaa(lp1544
g0
(g1051
g2
Ntp1545
Rp1546
(dp1547
g1055
I5
sg1056
I0
sg1057
(lp1548
sg1059
g1060
sbag0
(g1051
g2
Ntp1549
Rp1550
(dp1551
g1055
I5
sg1056
I1
sg1057
(lp1552
sg1059
g1060
sbag0
(g1051
g2
Ntp1553
Rp1554
(dp1555
g1055
I5
sg1056
I2
sg1057
g1042
sg1059
g1270
sbag0
(g1051
g2
Ntp1556
Rp1557
(dp1558
g1055
I3
sg1056
I5
sg1057
g738
sg1059
g1383
sbag0
(g1051
g2
Ntp1559
Rp1560
(dp1561
g1055
I5
sg1056
I4
sg1057
(lp1562
sg1059
g1060
sbag0
(g1051
g2
Ntp1563
Rp1564
(dp1565
g1055
I5
sg1056
I5
sg1057
(lp1566
sg1059
g1060
sbag0
(g1051
g2
Ntp1567
Rp1568
(dp1569
g1055
I6
sg1056
I5
sg1057
g842
sg1059
g1383
sbag0
(g1051
g2
Ntp1570
Rp1571
(dp1572
g1055
I5
sg1056
I7
sg1057
g510
sg1059
g1270
sbag0
(g1051
g2
Ntp1573
Rp1574
(dp1575
g1055
I8
sg1056
I5
sg1057
g90
sg1059
g1383
sbag0
(g1051
g2
Ntp1576
Rp1577
(dp1578
g1055
I5
sg1056
I9
sg1057
(lp1579
sg1059
g1060
sbag0
(g1051
g2
Ntp1580
Rp1581
(dp1582
g1055
I5
sg1056
I10
sg1057
(lp1583
sg1059
g1060
sbag0
(g1051
g2
Ntp1584
Rp1585
(dp1586
g1055
I5
sg1056
I11
sg1057
(lp1587
sg1059
g1060
sbag0
(g1051
g2
Ntp1588
Rp1589
(dp1590
g1055
I5
sg1056
I12
sg1057
(lp1591
sg1059
g1060
sbag0
(g1051
g2
Ntp1592
Rp1593
(dp1594
g1055
I5
sg1056
I13
sg1057
(lp1595
sg1059
g1060
sbag0
(g1051
g2
Ntp1596
Rp1597
(dp1598
g1055
I5
sg1056
I14
sg1057
(lp1599
sg1059
g1060
sbag0
(g1051
g2
Ntp1600
Rp1601
(dp1602
g1055
I5
sg1056
I15
sg1057
(lp1603
sg1059
g1060
sbag0
(g1051
g2
Ntp1604
Rp1605
(dp1606
g1055
I5
sg1056
I16
sg1057
(lp1607
sg1059
g1060
sbag0
(g1051
g2
Ntp1608
Rp1609
(dp1610
g1055
I5
sg1056
I17
sg1057
(lp1611
sg1059
g1060
sbag0
(g1051
g2
Ntp1612
Rp1613
(dp1614
g1055
I5
sg1056
I18
sg1057
(lp1615
sg1059
g1060
sbag0
(g1051
g2
Ntp1616
Rp1617
(dp1618
g1055
I5
sg1056
I19
sg1057
(lp1619
sg1059
g1060
sbag0
(g1051
g2
Ntp1620
Rp1621
(dp1622
g1055
I5
sg1056
I20
sg1057
(lp1623
sg1059
g1060
sbag0
(g1051
g2
Ntp1624
Rp1625
(dp1626
g1055
I5
sg1056
I21
sg1057
(lp1627
sg1059
g1060
sbag0
(g1051
g2
Ntp1628
Rp1629
(dp1630
g1055
I5
sg1056
I22
sg1057
(lp1631
sg1059
g1060
sbag0
(g1051
g2
Ntp1632
Rp1633
(dp1634
g1055
I5
sg1056
I23
sg1057
(lp1635
sg1059
g1060
sbag0
(g1051
g2
Ntp1636
Rp1637
(dp1638
g1055
I5
sg1056
I24
sg1057
(lp1639
sg1059
g1060
sbaa(lp1640
g0
(g1051
g2
Ntp1641
Rp1642
(dp1643
g1055
I6
sg1056
I0
sg1057
(lp1644
sg1059
g1060
sbag0
(g1051
g2
Ntp1645
Rp1646
(dp1647
g1055
I6
sg1056
I1
sg1057
(lp1648
sg1059
g1060
sbag0
(g1051
g2
Ntp1649
Rp1650
(dp1651
g1055
I6
sg1056
I2
sg1057
g583
sg1059
g1270
sbag0
(g1051
g2
Ntp1652
Rp1653
(dp1654
g1055
I3
sg1056
I6
sg1057
g905
sg1059
g1367
sbag0
(g1051
g2
Ntp1655
Rp1656
(dp1657
g1055
I6
sg1056
I4
sg1057
(lp1658
sg1059
g1060
sbag0
(g1051
g2
Ntp1659
Rp1660
(dp1661
g1055
I6
sg1056
I5
sg1057
(lp1662
sg1059
g1060
sbag0
(g1051
g2
Ntp1663
Rp1664
(dp1665
g1055
I6
sg1056
I6
sg1057
g839
sg1059
g1383
sbag0
(g1051
g2
Ntp1666
Rp1667
(dp1668
g1055
I6
sg1056
I7
sg1057
g100
sg1059
g1270
sbag0
(g1051
g2
Ntp1669
Rp1670
(dp1671
g1055
I8
sg1056
I6
sg1057
g756
sg1059
g1295
sbag0
(g1051
g2
Ntp1672
Rp1673
(dp1674
g1055
I6
sg1056
I9
sg1057
(lp1675
sg1059
g1060
sbag0
(g1051
g2
Ntp1676
Rp1677
(dp1678
g1055
I6
sg1056
I10
sg1057
(lp1679
sg1059
g1060
sbag0
(g1051
g2
Ntp1680
Rp1681
(dp1682
g1055
I6
sg1056
I11
sg1057
(lp1683
sg1059
g1060
sbag0
(g1051
g2
Ntp1684
Rp1685
(dp1686
g1055
I6
sg1056
I12
sg1057
(lp1687
sg1059
g1060
sbag0
(g1051
g2
Ntp1688
Rp1689
(dp1690
g1055
I6
sg1056
I13
sg1057
(lp1691
sg1059
g1060
sbag0
(g1051
g2
Ntp1692
Rp1693
(dp1694
g1055
I6
sg1056
I14
sg1057
(lp1695
sg1059
g1060
sbag0
(g1051
g2
Ntp1696
Rp1697
(dp1698
g1055
I6
sg1056
I15
sg1057
(lp1699
sg1059
g1060
sbag0
(g1051
g2
Ntp1700
Rp1701
(dp1702
g1055
I6
sg1056
I16
sg1057
(lp1703
sg1059
g1060
sbag0
(g1051
g2
Ntp1704
Rp1705
(dp1706
g1055
I6
sg1056
I17
sg1057
(lp1707
sg1059
g1060
sbag0
(g1051
g2
Ntp1708
Rp1709
(dp1710
g1055
I6
sg1056
I18
sg1057
(lp1711
sg1059
g1060
sbag0
(g1051
g2
Ntp1712
Rp1713
(dp1714
g1055
I6
sg1056
I19
sg1057
(lp1715
sg1059
g1060
sbag0
(g1051
g2
Ntp1716
Rp1717
(dp1718
g1055
I6
sg1056
I20
sg1057
(lp1719
sg1059
g1060
sbag0
(g1051
g2
Ntp1720
Rp1721
(dp1722
g1055
I6
sg1056
I21
sg1057
(lp1723
sg1059
g1060
sbag0
(g1051
g2
Ntp1724
Rp1725
(dp1726
g1055
I6
sg1056
I22
sg1057
(lp1727
sg1059
g1060
sbag0
(g1051
g2
Ntp1728
Rp1729
(dp1730
g1055
I6
sg1056
I23
sg1057
(lp1731
sg1059
g1060
sbag0
(g1051
g2
Ntp1732
Rp1733
(dp1734
g1055
I6
sg1056
I24
sg1057
(lp1735
sg1059
g1060
sbaa(lp1736
g0
(g1051
g2
Ntp1737
Rp1738
(dp1739
g1055
I7
sg1056
I0
sg1057
(lp1740
sg1059
g1060
sbag0
(g1051
g2
Ntp1741
Rp1742
(dp1743
g1055
I7
sg1056
I1
sg1057
(lp1744
sg1059
g1060
sbag0
(g1051
g2
Ntp1745
Rp1746
(dp1747
g1055
I7
sg1056
I2
sg1057
g332
sg1059
g1270
sbag0
(g1051
g2
Ntp1748
Rp1749
(dp1750
g1055
I3
sg1056
I7
sg1057
g14
sg1059
g1383
sbag0
(g1051
g2
Ntp1751
Rp1752
(dp1753
g1055
I4
sg1056
I7
sg1057
g514
sg1059
g1383
sbag0
(g1051
g2
Ntp1754
Rp1755
(dp1756
g1055
I5
sg1056
I7
sg1057
g192
sg1059
g1383
sbag0
(g1051
g2
Ntp1757
Rp1758
(dp1759
g1055
I6
sg1056
I7
sg1057
g117
sg1059
g1383
sbag0
(g1051
g2
Ntp1760
Rp1761
(dp1762
g1055
I7
sg1056
I7
sg1057
g848
sg1059
g1270
sbag0
(g1051
g2
Ntp1763
Rp1764
(dp1765
g1055
I8
sg1056
I7
sg1057
g275
sg1059
g1383
sbag0
(g1051
g2
Ntp1766
Rp1767
(dp1768
g1055
I7
sg1056
I9
sg1057
(lp1769
sg1059
g1060
sbag0
(g1051
g2
Ntp1770
Rp1771
(dp1772
g1055
I7
sg1056
I10
sg1057
(lp1773
sg1059
g1060
sbag0
(g1051
g2
Ntp1774
Rp1775
(dp1776
g1055
I7
sg1056
I11
sg1057
(lp1777
sg1059
g1060
sbag0
(g1051
g2
Ntp1778
Rp1779
(dp1780
g1055
I7
sg1056
I12
sg1057
(lp1781
sg1059
g1060
sbag0
(g1051
g2
Ntp1782
Rp1783
(dp1784
g1055
I7
sg1056
I13
sg1057
(lp1785
sg1059
g1060
sbag0
(g1051
g2
Ntp1786
Rp1787
(dp1788
g1055
I7
sg1056
I14
sg1057
(lp1789
sg1059
g1060
sbag0
(g1051
g2
Ntp1790
Rp1791
(dp1792
g1055
I7
sg1056
I15
sg1057
(lp1793
sg1059
g1060
sbag0
(g1051
g2
Ntp1794
Rp1795
(dp1796
g1055
I7
sg1056
I16
sg1057
(lp1797
sg1059
g1060
sbag0
(g1051
g2
Ntp1798
Rp1799
(dp1800
g1055
I7
sg1056
I17
sg1057
(lp1801
sg1059
g1060
sbag0
(g1051
g2
Ntp1802
Rp1803
(dp1804
g1055
I7
sg1056
I18
sg1057
(lp1805
sg1059
g1060
sbag0
(g1051
g2
Ntp1806
Rp1807
(dp1808
g1055
I7
sg1056
I19
sg1057
(lp1809
sg1059
g1060
sbag0
(g1051
g2
Ntp1810
Rp1811
(dp1812
g1055
I7
sg1056
I20
sg1057
(lp1813
sg1059
g1060
sbag0
(g1051
g2
Ntp1814
Rp1815
(dp1816
g1055
I7
sg1056
I21
sg1057
(lp1817
sg1059
g1060
sbag0
(g1051
g2
Ntp1818
Rp1819
(dp1820
g1055
I7
sg1056
I22
sg1057
(lp1821
sg1059
g1060
sbag0
(g1051
g2
Ntp1822
Rp1823
(dp1824
g1055
I7
sg1056
I23
sg1057
(lp1825
sg1059
g1060
sbag0
(g1051
g2
Ntp1826
Rp1827
(dp1828
g1055
I7
sg1056
I24
sg1057
(lp1829
sg1059
g1060
sbaa(lp1830
g0
(g1051
g2
Ntp1831
Rp1832
(dp1833
g1055
I8
sg1056
I0
sg1057
(lp1834
sg1059
g1060
sbag0
(g1051
g2
Ntp1835
Rp1836
(dp1837
g1055
I8
sg1056
I1
sg1057
(lp1838
sg1059
g1060
sbag0
(g1051
g2
Ntp1839
Rp1840
(dp1841
g1055
I8
sg1056
I2
sg1057
g179
sg1059
g1270
sbag0
(g1051
g2
Ntp1842
Rp1843
(dp1844
g1055
I8
sg1056
I3
sg1057
g488
sg1059
g1270
sbag0
(g1051
g2
Ntp1845
Rp1846
(dp1847
g1055
I8
sg1056
I4
sg1057
g824
sg1059
g1270
sbag0
(g1051
g2
Ntp1848
Rp1849
(dp1850
g1055
I8
sg1056
I5
sg1057
g82
sg1059
g1270
sbag0
(g1051
g2
Ntp1851
Rp1852
(dp1853
g1055
I6
sg1056
I8
sg1057
g396
sg1059
g1295
sbag0
(g1051
g2
Ntp1854
Rp1855
(dp1856
g1055
I8
sg1056
I7
sg1057
g715
sg1059
g1270
sbag0
(g1051
g2
Ntp1857
Rp1858
(dp1859
g1055
I8
sg1056
I8
sg1057
g1024
sg1059
g1383
sbag0
(g1051
g2
Ntp1860
Rp1861
(dp1862
g1055
I8
sg1056
I9
sg1057
(lp1863
sg1059
g1060
sbag0
(g1051
g2
Ntp1864
Rp1865
(dp1866
g1055
I8
sg1056
I10
sg1057
(lp1867
sg1059
g1060
sbag0
(g1051
g2
Ntp1868
Rp1869
(dp1870
g1055
I8
sg1056
I11
sg1057
(lp1871
sg1059
g1060
sbag0
(g1051
g2
Ntp1872
Rp1873
(dp1874
g1055
I12
sg1056
I8
sg1057
g239
sg1059
g1295
sbag0
(g1051
g2
Ntp1875
Rp1876
(dp1877
g1055
I13
sg1056
I8
sg1057
g559
sg1059
g1295
sbag0
(g1051
g2
Ntp1878
Rp1879
(dp1880
g1055
I14
sg1056
I8
sg1057
g885
sg1059
g1295
sbag0
(g1051
g2
Ntp1881
Rp1882
(dp1883
g1055
I15
sg1056
I8
sg1057
g161
sg1059
g1383
sbag0
(g1051
g2
Ntp1884
Rp1885
(dp1886
g1055
I8
sg1056
I16
sg1057
(lp1887
sg1059
g1060
sbag0
(g1051
g2
Ntp1888
Rp1889
(dp1890
g1055
I8
sg1056
I17
sg1057
(lp1891
sg1059
g1060
sbag0
(g1051
g2
Ntp1892
Rp1893
(dp1894
g1055
I8
sg1056
I18
sg1057
(lp1895
sg1059
g1060
sbag0
(g1051
g2
Ntp1896
Rp1897
(dp1898
g1055
I8
sg1056
I19
sg1057
(lp1899
sg1059
g1060
sbag0
(g1051
g2
Ntp1900
Rp1901
(dp1902
g1055
I8
sg1056
I20
sg1057
(lp1903
sg1059
g1060
sbag0
(g1051
g2
Ntp1904
Rp1905
(dp1906
g1055
I8
sg1056
I21
sg1057
(lp1907
sg1059
g1060
sbag0
(g1051
g2
Ntp1908
Rp1909
(dp1910
g1055
I8
sg1056
I22
sg1057
(lp1911
sg1059
g1060
sbag0
(g1051
g2
Ntp1912
Rp1913
(dp1914
g1055
I8
sg1056
I23
sg1057
(lp1915
sg1059
g1060
sbag0
(g1051
g2
Ntp1916
Rp1917
(dp1918
g1055
I8
sg1056
I24
sg1057
(lp1919
sg1059
g1060
sbaa(lp1920
g0
(g1051
g2
Ntp1921
Rp1922
(dp1923
g1055
I9
sg1056
I0
sg1057
(lp1924
sg1059
g1060
sbag0
(g1051
g2
Ntp1925
Rp1926
(dp1927
g1055
I9
sg1056
I1
sg1057
(lp1928
sg1059
g1060
sbag0
(g1051
g2
Ntp1929
Rp1930
(dp1931
g1055
I2
sg1056
I9
sg1057
g504
sg1059
g1383
sbag0
(g1051
g2
Ntp1932
Rp1933
(dp1934
g1055
I3
sg1056
I9
sg1057
g186
sg1059
g1383
sbag0
(g1051
g2
Ntp1935
Rp1936
(dp1937
g1055
I4
sg1056
I9
sg1057
g315
sg1059
g1295
sbag0
(g1051
g2
Ntp1938
Rp1939
(dp1940
g1055
I9
sg1056
I5
sg1057
g1038
sg1059
g1270
sbag0
(g1051
g2
Ntp1941
Rp1942
(dp1943
g1055
I6
sg1056
I9
sg1057
g727
sg1059
g1383
sbag0
(g1051
g2
Ntp1944
Rp1945
(dp1946
g1055
I9
sg1056
I7
sg1057
g411
sg1059
g1270
sbag0
(g1051
g2
Ntp1947
Rp1948
(dp1949
g1055
I8
sg1056
I9
sg1057
g573
sg1059
g1367
sbag0
(g1051
g2
Ntp1950
Rp1951
(dp1952
g1055
I9
sg1056
I9
sg1057
g247
sg1059
g1383
sbag0
(g1051
g2
Ntp1953
Rp1954
(dp1955
g1055
I10
sg1056
I9
sg1057
g964
sg1059
g1383
sbag0
(g1051
g2
Ntp1956
Rp1957
(dp1958
g1055
I11
sg1056
I9
sg1057
g645
sg1059
g1367
sbag0
(g1051
g2
Ntp1959
Rp1960
(dp1961
g1055
I9
sg1056
I12
sg1057
g820
sg1059
g1270
sbag0
(g1051
g2
Ntp1962
Rp1963
(dp1964
g1055
I9
sg1056
I13
sg1057
g484
sg1059
g1270
sbag0
(g1051
g2
Ntp1965
Rp1966
(dp1967
g1055
I9
sg1056
I14
sg1057
g175
sg1059
g1270
sbag0
(g1051
g2
Ntp1968
Rp1969
(dp1970
g1055
I9
sg1056
I15
sg1057
g894
sg1059
g1270
sbag0
(g1051
g2
Ntp1971
Rp1972
(dp1973
g1055
I16
sg1056
I9
sg1057
g189
sg1059
g1295
sbag0
(g1051
g2
Ntp1974
Rp1975
(dp1976
g1055
I9
sg1056
I17
sg1057
(lp1977
sg1059
g1060
sbag0
(g1051
g2
Ntp1978
Rp1979
(dp1980
g1055
I9
sg1056
I18
sg1057
(lp1981
sg1059
g1060
sbag0
(g1051
g2
Ntp1982
Rp1983
(dp1984
g1055
I9
sg1056
I19
sg1057
(lp1985
sg1059
g1060
sbag0
(g1051
g2
Ntp1986
Rp1987
(dp1988
g1055
I9
sg1056
I20
sg1057
(lp1989
sg1059
g1060
sbag0
(g1051
g2
Ntp1990
Rp1991
(dp1992
g1055
I9
sg1056
I21
sg1057
(lp1993
sg1059
g1060
sbag0
(g1051
g2
Ntp1994
Rp1995
(dp1996
g1055
I9
sg1056
I22
sg1057
(lp1997
sg1059
g1060
sbag0
(g1051
g2
Ntp1998
Rp1999
(dp2000
g1055
I9
sg1056
I23
sg1057
(lp2001
sg1059
g1060
sbag0
(g1051
g2
Ntp2002
Rp2003
(dp2004
g1055
I9
sg1056
I24
sg1057
(lp2005
sg1059
g1060
sbaa(lp2006
g0
(g1051
g2
Ntp2007
Rp2008
(dp2009
g1055
I10
sg1056
I0
sg1057
(lp2010
sg1059
g1060
sbag0
(g1051
g2
Ntp2011
Rp2012
(dp2013
g1055
I10
sg1056
I1
sg1057
(lp2014
sg1059
g1060
sbag0
(g1051
g2
Ntp2015
Rp2016
(dp2017
g1055
I10
sg1056
I2
sg1057
(lp2018
sg1059
g1060
sbag0
(g1051
g2
Ntp2019
Rp2020
(dp2021
g1055
I10
sg1056
I3
sg1057
(lp2022
sg1059
g1060
sbag0
(g1051
g2
Ntp2023
Rp2024
(dp2025
g1055
I4
sg1056
I10
sg1057
g425
sg1059
g1383
sbag0
(g1051
g2
Ntp2026
Rp2027
(dp2028
g1055
I10
sg1056
I5
sg1057
g745
sg1059
g1270
sbag0
(g1051
g2
Ntp2029
Rp2030
(dp2031
g1055
I6
sg1056
I10
sg1057
g845
sg1059
g1295
sbag0
(g1051
g2
Ntp2032
Rp2033
(dp2034
g1055
I10
sg1056
I7
sg1057
g108
sg1059
g1270
sbag0
(g1051
g2
Ntp2035
Rp2036
(dp2037
g1055
I10
sg1056
I8
sg1057
g96
sg1059
g1270
sbag0
(g1051
g2
Ntp2038
Rp2039
(dp2040
g1055
I10
sg1056
I9
sg1057
g407
sg1059
g1270
sbag0
(g1051
g2
Ntp2041
Rp2042
(dp2043
g1055
I10
sg1056
I10
sg1057
g500
sg1059
g1270
sbag0
(g1051
g2
Ntp2044
Rp2045
(dp2046
g1055
I11
sg1056
I10
sg1057
g832
sg1059
g1367
sbag0
(g1051
g2
Ntp2047
Rp2048
(dp2049
g1055
I10
sg1056
I12
sg1057
g898
sg1059
g1270
sbag0
(g1051
g2
Ntp2050
Rp2051
(dp2052
g1055
I13
sg1056
I10
sg1057
g183
sg1059
g1367
sbag0
(g1051
g2
Ntp2053
Rp2054
(dp2055
g1055
I14
sg1056
I10
sg1057
g261
sg1059
g1367
sbag0
(g1051
g2
Ntp2056
Rp2057
(dp2058
g1055
I10
sg1056
I15
sg1057
g579
sg1059
g1270
sbag0
(g1051
g2
Ntp2059
Rp2060
(dp2061
g1055
I16
sg1056
I10
sg1057
g762
sg1059
g1383
sbag0
(g1051
g2
Ntp2062
Rp2063
(dp2064
g1055
I10
sg1056
I17
sg1057
(lp2065
sg1059
g1060
sbag0
(g1051
g2
Ntp2066
Rp2067
(dp2068
g1055
I10
sg1056
I18
sg1057
(lp2069
sg1059
g1060
sbag0
(g1051
g2
Ntp2070
Rp2071
(dp2072
g1055
I10
sg1056
I19
sg1057
(lp2073
sg1059
g1060
sbag0
(g1051
g2
Ntp2074
Rp2075
(dp2076
g1055
I10
sg1056
I20
sg1057
(lp2077
sg1059
g1060
sbag0
(g1051
g2
Ntp2078
Rp2079
(dp2080
g1055
I10
sg1056
I21
sg1057
(lp2081
sg1059
g1060
sbag0
(g1051
g2
Ntp2082
Rp2083
(dp2084
g1055
I10
sg1056
I22
sg1057
(lp2085
sg1059
g1060
sbag0
(g1051
g2
Ntp2086
Rp2087
(dp2088
g1055
I10
sg1056
I23
sg1057
(lp2089
sg1059
g1060
sbag0
(g1051
g2
Ntp2090
Rp2091
(dp2092
g1055
I10
sg1056
I24
sg1057
(lp2093
sg1059
g1060
sbaa(lp2094
g0
(g1051
g2
Ntp2095
Rp2096
(dp2097
g1055
I11
sg1056
I0
sg1057
(lp2098
sg1059
g1060
sbag0
(g1051
g2
Ntp2099
Rp2100
(dp2101
g1055
I11
sg1056
I1
sg1057
(lp2102
sg1059
g1060
sbag0
(g1051
g2
Ntp2103
Rp2104
(dp2105
g1055
I11
sg1056
I2
sg1057
(lp2106
sg1059
g1060
sbag0
(g1051
g2
Ntp2107
Rp2108
(dp2109
g1055
I11
sg1056
I3
sg1057
(lp2110
sg1059
g1060
sbag0
(g1051
g2
Ntp2111
Rp2112
(dp2113
g1055
I4
sg1056
I11
sg1057
g422
sg1059
g1295
sbag0
(g1051
g2
Ntp2114
Rp2115
(dp2116
g1055
I11
sg1056
I5
sg1057
g104
sg1059
g1270
sbag0
(g1051
g2
Ntp2117
Rp2118
(dp2119
g1055
I6
sg1056
I11
sg1057
g1046
sg1059
g1295
sbag0
(g1051
g2
Ntp2120
Rp2121
(dp2122
g1055
I11
sg1056
I7
sg1057
g741
sg1059
g1270
sbag0
(g1051
g2
Ntp2123
Rp2124
(dp2125
g1055
I8
sg1056
I11
sg1057
g759
sg1059
g1383
sbag0
(g1051
g2
Ntp2126
Rp2127
(dp2128
g1055
I9
sg1056
I11
sg1057
g441
sg1059
g1383
sbag0
(g1051
g2
Ntp2129
Rp2130
(dp2131
g1055
I11
sg1056
I10
sg1057
g340
sg1059
g1270
sbag0
(g1051
g2
Ntp2132
Rp2133
(dp2134
g1055
I11
sg1056
I11
sg1057
g21
sg1059
g1295
sbag0
(g1051
g2
Ntp2135
Rp2136
(dp2137
g1055
I11
sg1056
I12
sg1057
g978
sg1059
g1270
sbag0
(g1051
g2
Ntp2138
Rp2139
(dp2140
g1055
I13
sg1056
I11
sg1057
g664
sg1059
g1367
sbag0
(g1051
g2
Ntp2141
Rp2142
(dp2143
g1055
I14
sg1056
I11
sg1057
g591
sg1059
g1383
sbag0
(g1051
g2
Ntp2144
Rp2145
(dp2146
g1055
I11
sg1056
I15
sg1057
g267
sg1059
g1270
sbag0
(g1051
g2
Ntp2147
Rp2148
(dp2149
g1055
I16
sg1056
I11
sg1057
g285
sg1059
g1383
sbag0
(g1051
g2
Ntp2150
Rp2151
(dp2152
g1055
I17
sg1056
I11
sg1057
g995
sg1059
S'Sklep'
p2153
sbag0
(g1051
g2
Ntp2154
Rp2155
(dp2156
g1055
I18
sg1056
I11
sg1057
g923
sg1059
g1367
sbag0
(g1051
g2
Ntp2157
Rp2158
(dp2159
g1055
I19
sg1056
I11
sg1057
g604
sg1059
g1295
sbag0
(g1051
g2
Ntp2160
Rp2161
(dp2162
g1055
I20
sg1056
I11
sg1057
g523
sg1059
g2153
sbag0
(g1051
g2
Ntp2163
Rp2164
(dp2165
g1055
I21
sg1056
I11
sg1057
g202
sg1059
g1383
sbag0
(g1051
g2
Ntp2166
Rp2167
(dp2168
g1055
I22
sg1056
I11
sg1057
g126
sg1059
g1383
sbag0
(g1051
g2
Ntp2169
Rp2170
(dp2171
g1055
I11
sg1056
I23
sg1057
(lp2172
sg1059
g1060
sbag0
(g1051
g2
Ntp2173
Rp2174
(dp2175
g1055
I11
sg1056
I24
sg1057
(lp2176
sg1059
g1060
sbaa(lp2177
g0
(g1051
g2
Ntp2178
Rp2179
(dp2180
g1055
I12
sg1056
I0
sg1057
(lp2181
sg1059
g1060
sbag0
(g1051
g2
Ntp2182
Rp2183
(dp2184
g1055
I12
sg1056
I1
sg1057
(lp2185
sg1059
g1060
sbag0
(g1051
g2
Ntp2186
Rp2187
(dp2188
g1055
I12
sg1056
I2
sg1057
(lp2189
sg1059
g1060
sbag0
(g1051
g2
Ntp2190
Rp2191
(dp2192
g1055
I12
sg1056
I3
sg1057
(lp2193
sg1059
g1060
sbag0
(g1051
g2
Ntp2194
Rp2195
(dp2196
g1055
I4
sg1056
I12
sg1057
g520
sg1059
S'Fabryka'
p2197
sbag0
(g1051
g2
Ntp2198
Rp2199
(dp2200
g1055
I12
sg1056
I5
sg1057
g852
sg1059
g1270
sbag0
(g1051
g2
Ntp2201
Rp2202
(dp2203
g1055
I6
sg1056
I12
sg1057
g123
sg1059
g2153
sbag0
(g1051
g2
Ntp2204
Rp2205
(dp2206
g1055
I12
sg1056
I7
sg1057
g437
sg1059
g1270
sbag0
(g1051
g2
Ntp2207
Rp2208
(dp2209
g1055
I8
sg1056
I12
sg1057
g282
sg1059
g1367
sbag0
(g1051
g2
Ntp2210
Rp2211
(dp2212
g1055
I9
sg1056
I12
sg1057
g601
sg1059
g1295
sbag0
(g1051
g2
Ntp2213
Rp2214
(dp2215
g1055
I12
sg1056
I10
sg1057
g919
sg1059
g1270
sbag0
(g1051
g2
Ntp2216
Rp2217
(dp2218
g1055
I11
sg1056
I12
sg1057
g199
sg1059
g1462
sbag0
(g1051
g2
Ntp2219
Rp2220
(dp2221
g1055
I12
sg1056
I12
sg1057
g42
sg1059
g1295
sbag0
(g1051
g2
Ntp2222
Rp2223
(dp2224
g1055
I12
sg1056
I13
sg1057
(lp2225
sg1059
g1060
sbag0
(g1051
g2
Ntp2226
Rp2227
(dp2228
g1055
I14
sg1056
I12
sg1057
g678
sg1059
g1383
sbag0
(g1051
g2
Ntp2229
Rp2230
(dp2231
g1055
I12
sg1056
I15
sg1057
g991
sg1059
g1270
sbag0
(g1051
g2
Ntp2232
Rp2233
(dp2234
g1055
I16
sg1056
I12
sg1057
g865
sg1059
g1383
sbag0
(g1051
g2
Ntp2235
Rp2236
(dp2237
g1055
I12
sg1056
I17
sg1057
g139
sg1059
g1270
sbag0
(g1051
g2
Ntp2238
Rp2239
(dp2240
g1055
I12
sg1056
I18
sg1057
g453
sg1059
g1270
sbag0
(g1051
g2
Ntp2241
Rp2242
(dp2243
g1055
I12
sg1056
I19
sg1057
g776
sg1059
g1270
sbag0
(g1051
g2
Ntp2244
Rp2245
(dp2246
g1055
I12
sg1056
I20
sg1057
g622
sg1059
g1270
sbag0
(g1051
g2
Ntp2247
Rp2248
(dp2249
g1055
I12
sg1056
I21
sg1057
g940
sg1059
g1270
sbag0
(g1051
g2
Ntp2250
Rp2251
(dp2252
g1055
I12
sg1056
I22
sg1057
g219
sg1059
g1270
sbag0
(g1051
g2
Ntp2253
Rp2254
(dp2255
g1055
I12
sg1056
I23
sg1057
(lp2256
sg1059
g1060
sbag0
(g1051
g2
Ntp2257
Rp2258
(dp2259
g1055
I12
sg1056
I24
sg1057
(lp2260
sg1059
g1060
sbaa(lp2261
g0
(g1051
g2
Ntp2262
Rp2263
(dp2264
g1055
I13
sg1056
I0
sg1057
(lp2265
sg1059
g1060
sbag0
(g1051
g2
Ntp2266
Rp2267
(dp2268
g1055
I13
sg1056
I1
sg1057
(lp2269
sg1059
g1060
sbag0
(g1051
g2
Ntp2270
Rp2271
(dp2272
g1055
I13
sg1056
I2
sg1057
(lp2273
sg1059
g1060
sbag0
(g1051
g2
Ntp2274
Rp2275
(dp2276
g1055
I13
sg1056
I3
sg1057
(lp2277
sg1059
g1060
sbag0
(g1051
g2
Ntp2278
Rp2279
(dp2280
g1055
I4
sg1056
I13
sg1057
g39
sg1059
g1367
sbag0
(g1051
g2
Ntp2281
Rp2282
(dp2283
g1055
I13
sg1056
I5
sg1057
g772
sg1059
g1270
sbag0
(g1051
g2
Ntp2284
Rp2285
(dp2286
g1055
I6
sg1056
I13
sg1057
g450
sg1059
g1367
sbag0
(g1051
g2
Ntp2287
Rp2288
(dp2289
g1055
I13
sg1056
I7
sg1057
g135
sg1059
g1270
sbag0
(g1051
g2
Ntp2290
Rp2291
(dp2292
g1055
I8
sg1056
I13
sg1057
g862
sg1059
g1383
sbag0
(g1051
g2
Ntp2293
Rp2294
(dp2295
g1055
I9
sg1056
I13
sg1057
g532
sg1059
g1367
sbag0
(g1051
g2
Ntp2296
Rp2297
(dp2298
g1055
I13
sg1056
I10
sg1057
g215
sg1059
g1270
sbag0
(g1051
g2
Ntp2299
Rp2300
(dp2301
g1055
I11
sg1056
I13
sg1057
g937
sg1059
g1367
sbag0
(g1051
g2
Ntp2302
Rp2303
(dp2304
g1055
I13
sg1056
I12
sg1057
(lp2305
sg1059
g1060
sbag0
(g1051
g2
Ntp2306
Rp2307
(dp2308
g1055
I13
sg1056
I13
sg1057
(lp2309
sg1059
g1060
sbag0
(g1051
g2
Ntp2310
Rp2311
(dp2312
g1055
I14
sg1056
I13
sg1057
g1005
sg1059
g1383
sbag0
(g1051
g2
Ntp2313
Rp2314
(dp2315
g1055
I13
sg1056
I15
sg1057
g690
sg1059
g1270
sbag0
(g1051
g2
Ntp2316
Rp2317
(dp2318
g1055
I16
sg1056
I13
sg1057
g368
sg1059
g1295
sbag0
(g1051
g2
Ntp2319
Rp2320
(dp2321
g1055
I13
sg1056
I17
sg1057
g51
sg1059
g1270
sbag0
(g1051
g2
Ntp2322
Rp2323
(dp2324
g1055
I18
sg1056
I13
sg1057
g793
sg1059
g1383
sbag0
(g1051
g2
Ntp2325
Rp2326
(dp2327
g1055
I19
sg1056
I13
sg1057
g467
sg1059
g1295
sbag0
(g1051
g2
Ntp2328
Rp2329
(dp2330
g1055
I20
sg1056
I13
sg1057
g150
sg1059
g1367
sbag0
(g1051
g2
Ntp2331
Rp2332
(dp2333
g1055
I21
sg1056
I13
sg1057
g878
sg1059
g1383
sbag0
(g1051
g2
Ntp2334
Rp2335
(dp2336
g1055
I13
sg1056
I22
sg1057
g548
sg1059
g1270
sbag0
(g1051
g2
Ntp2337
Rp2338
(dp2339
g1055
I13
sg1056
I23
sg1057
(lp2340
sg1059
g1060
sbag0
(g1051
g2
Ntp2341
Rp2342
(dp2343
g1055
I13
sg1056
I24
sg1057
(lp2344
sg1059
g1060
sbaa(lp2345
g0
(g1051
g2
Ntp2346
Rp2347
(dp2348
g1055
I14
sg1056
I0
sg1057
(lp2349
sg1059
g1060
sbag0
(g1051
g2
Ntp2350
Rp2351
(dp2352
g1055
I14
sg1056
I1
sg1057
(lp2353
sg1059
g1060
sbag0
(g1051
g2
Ntp2354
Rp2355
(dp2356
g1055
I14
sg1056
I2
sg1057
(lp2357
sg1059
g1060
sbag0
(g1051
g2
Ntp2358
Rp2359
(dp2360
g1055
I14
sg1056
I3
sg1057
(lp2361
sg1059
g1060
sbag0
(g1051
g2
Ntp2362
Rp2363
(dp2364
g1055
I4
sg1056
I14
sg1057
g36
sg1059
g1383
sbag0
(g1051
g2
Ntp2365
Rp2366
(dp2367
g1055
I14
sg1056
I5
sg1057
g351
sg1059
g1270
sbag0
(g1051
g2
Ntp2368
Rp2369
(dp2370
g1055
I6
sg1056
I14
sg1057
g447
sg1059
g1295
sbag0
(g1051
g2
Ntp2371
Rp2372
(dp2373
g1055
I14
sg1056
I7
sg1057
g768
sg1059
g1270
sbag0
(g1051
g2
Ntp2374
Rp2375
(dp2376
g1055
I14
sg1056
I8
sg1057
g278
sg1059
g1270
sbag0
(g1051
g2
Ntp2377
Rp2378
(dp2379
g1055
I14
sg1056
I9
sg1057
g597
sg1059
g1270
sbag0
(g1051
g2
Ntp2380
Rp2381
(dp2382
g1055
I14
sg1056
I10
sg1057
g674
sg1059
g1270
sbag0
(g1051
g2
Ntp2383
Rp2384
(dp2385
g1055
I11
sg1056
I14
sg1057
g988
sg1059
g1383
sbag0
(g1051
g2
Ntp2386
Rp2387
(dp2388
g1055
I14
sg1056
I12
sg1057
(lp2389
sg1059
g1060
sbag0
(g1051
g2
Ntp2390
Rp2391
(dp2392
g1055
I14
sg1056
I13
sg1057
(lp2393
sg1059
g1060
sbag0
(g1051
g2
Ntp2394
Rp2395
(dp2396
g1055
I14
sg1056
I14
sg1057
g916
sg1059
g1383
sbag0
(g1051
g2
Ntp2397
Rp2398
(dp2399
g1055
I14
sg1056
I15
sg1057
g195
sg1059
g1270
sbag0
(g1051
g2
Ntp2400
Rp2401
(dp2402
g1055
I16
sg1056
I14
sg1057
g223
sg1059
g1383
sbag0
(g1051
g2
Ntp2403
Rp2404
(dp2405
g1055
I14
sg1056
I17
sg1057
g17
sg1059
g1270
sbag0
(g1051
g2
Ntp2406
Rp2407
(dp2408
g1055
I18
sg1056
I14
sg1057
g120
sg1059
g1295
sbag0
(g1051
g2
Ntp2409
Rp2410
(dp2411
g1055
I14
sg1056
I19
sg1057
g431
sg1059
g1270
sbag0
(g1051
g2
Ntp2412
Rp2413
(dp2414
g1055
I14
sg1056
I20
sg1057
g974
sg1059
g1270
sbag0
(g1051
g2
Ntp2415
Rp2416
(dp2417
g1055
I21
sg1056
I14
sg1057
g264
sg1059
g1383
sbag0
(g1051
g2
Ntp2418
Rp2419
(dp2420
g1055
I14
sg1056
I22
sg1057
g336
sg1059
g1270
sbag0
(g1051
g2
Ntp2421
Rp2422
(dp2423
g1055
I14
sg1056
I23
sg1057
(lp2424
sg1059
g1060
sbag0
(g1051
g2
Ntp2425
Rp2426
(dp2427
g1055
I14
sg1056
I24
sg1057
(lp2428
sg1059
g1060
sbaa(lp2429
g0
(g1051
g2
Ntp2430
Rp2431
(dp2432
g1055
I15
sg1056
I0
sg1057
(lp2433
sg1059
g1060
sbag0
(g1051
g2
Ntp2434
Rp2435
(dp2436
g1055
I15
sg1056
I1
sg1057
(lp2437
sg1059
g1060
sbag0
(g1051
g2
Ntp2438
Rp2439
(dp2440
g1055
I15
sg1056
I2
sg1057
(lp2441
sg1059
g1060
sbag0
(g1051
g2
Ntp2442
Rp2443
(dp2444
g1055
I15
sg1056
I3
sg1057
(lp2445
sg1059
g1060
sbag0
(g1051
g2
Ntp2446
Rp2447
(dp2448
g1055
I4
sg1056
I15
sg1057
g147
sg1059
g1367
sbag0
(g1051
g2
Ntp2449
Rp2450
(dp2451
g1055
I15
sg1056
I5
sg1057
g874
sg1059
g1270
sbag0
(g1051
g2
Ntp2452
Rp2453
(dp2454
g1055
I6
sg1056
I15
sg1057
g787
sg1059
g1383
sbag0
(g1051
g2
Ntp2455
Rp2456
(dp2457
g1055
I7
sg1056
I15
sg1057
g464
sg1059
g1295
sbag0
(g1051
g2
Ntp2458
Rp2459
(dp2460
g1055
I8
sg1056
I15
sg1057
g859
sg1059
g2197
sbag0
(g1051
g2
Ntp2461
Rp2462
(dp2463
g1055
I9
sg1056
I15
sg1057
g529
sg1059
g1383
sbag0
(g1051
g2
Ntp2464
Rp2465
(dp2466
g1055
I10
sg1056
I15
sg1057
g444
sg1059
g1383
sbag0
(g1051
g2
Ntp2467
Rp2468
(dp2469
g1055
I11
sg1056
I15
sg1057
g132
sg1059
g1295
sbag0
(g1051
g2
Ntp2470
Rp2471
(dp2472
g1055
I12
sg1056
I15
sg1057
g610
sg1059
g1295
sbag0
(g1051
g2
Ntp2473
Rp2474
(dp2475
g1055
I13
sg1056
I15
sg1057
g294
sg1059
g1383
sbag0
(g1051
g2
Ntp2476
Rp2477
(dp2478
g1055
I14
sg1056
I15
sg1057
g208
sg1059
g1383
sbag0
(g1051
g2
Ntp2479
Rp2480
(dp2481
g1055
I15
sg1056
I15
sg1057
g929
sg1059
g1270
sbag0
(g1051
g2
Ntp2482
Rp2483
(dp2484
g1055
I16
sg1056
I15
sg1057
g507
sg1059
g1367
sbag0
(g1051
g2
Ntp2485
Rp2486
(dp2487
g1055
I15
sg1056
I17
sg1057
g984
sg1059
g1270
sbag0
(g1051
g2
Ntp2488
Rp2489
(dp2490
g1055
I18
sg1056
I15
sg1057
g913
sg1059
g1383
sbag0
(g1051
g2
Ntp2491
Rp2492
(dp2493
g1055
I19
sg1056
I15
sg1057
g594
sg1059
g1295
sbag0
(g1051
g2
Ntp2494
Rp2495
(dp2496
g1055
I15
sg1056
I20
sg1057
g32
sg1059
g1270
sbag0
(g1051
g2
Ntp2497
Rp2498
(dp2499
g1055
I21
sg1056
I15
sg1057
g765
sg1059
g1383
sbag0
(g1051
g2
Ntp2500
Rp2501
(dp2502
g1055
I15
sg1056
I22
sg1057
g670
sg1059
g1270
sbag0
(g1051
g2
Ntp2503
Rp2504
(dp2505
g1055
I15
sg1056
I23
sg1057
(lp2506
sg1059
g1060
sbag0
(g1051
g2
Ntp2507
Rp2508
(dp2509
g1055
I15
sg1056
I24
sg1057
(lp2510
sg1059
g1060
sbaa(lp2511
g0
(g1051
g2
Ntp2512
Rp2513
(dp2514
g1055
I16
sg1056
I0
sg1057
(lp2515
sg1059
g1060
sbag0
(g1051
g2
Ntp2516
Rp2517
(dp2518
g1055
I16
sg1056
I1
sg1057
(lp2519
sg1059
g1060
sbag0
(g1051
g2
Ntp2520
Rp2521
(dp2522
g1055
I16
sg1056
I2
sg1057
(lp2523
sg1059
g1060
sbag0
(g1051
g2
Ntp2524
Rp2525
(dp2526
g1055
I16
sg1056
I3
sg1057
(lp2527
sg1059
g1060
sbag0
(g1051
g2
Ntp2528
Rp2529
(dp2530
g1055
I4
sg1056
I16
sg1057
g428
sg1059
g1383
sbag0
(g1051
g2
Ntp2531
Rp2532
(dp2533
g1055
I16
sg1056
I5
sg1057
g752
sg1059
g1270
sbag0
(g1051
g2
Ntp2534
Rp2535
(dp2536
g1055
I16
sg1056
I6
sg1057
g28
sg1059
g1270
sbag0
(g1051
g2
Ntp2537
Rp2538
(dp2539
g1055
I16
sg1056
I7
sg1057
g908
sg1059
g1270
sbag0
(g1051
g2
Ntp2540
Rp2541
(dp2542
g1055
I16
sg1056
I8
sg1057
g232
sg1059
g1270
sbag0
(g1051
g2
Ntp2543
Rp2544
(dp2545
g1055
I16
sg1056
I9
sg1057
g660
sg1059
g1270
sbag0
(g1051
g2
Ntp2546
Rp2547
(dp2548
g1055
I16
sg1056
I10
sg1057
g347
sg1059
g1270
sbag0
(g1051
g2
Ntp2549
Rp2550
(dp2551
g1055
I16
sg1056
I11
sg1057
g954
sg1059
g1270
sbag0
(g1051
g2
Ntp2552
Rp2553
(dp2554
g1055
I16
sg1056
I12
sg1057
g656
sg1059
g1270
sbag0
(g1051
g2
Ntp2555
Rp2556
(dp2557
g1055
I16
sg1056
I13
sg1057
g322
sg1059
g1270
sbag0
(g1051
g2
Ntp2558
Rp2559
(dp2560
g1055
I16
sg1056
I14
sg1057
g318
sg1059
g1270
sbag0
(g1051
g2
Ntp2561
Rp2562
(dp2563
g1055
I16
sg1056
I15
sg1057
g1034
sg1059
g1270
sbag0
(g1051
g2
Ntp2564
Rp2565
(dp2566
g1055
I16
sg1056
I16
sg1057
g967
sg1059
g1367
sbag0
(g1051
g2
Ntp2567
Rp2568
(dp2569
g1055
I16
sg1056
I17
sg1057
g415
sg1059
g1270
sbag0
(g1051
g2
Ntp2570
Rp2571
(dp2572
g1055
I16
sg1056
I18
sg1057
g254
sg1059
g1270
sbag0
(g1051
g2
Ntp2573
Rp2574
(dp2575
g1055
I16
sg1056
I19
sg1057
g86
sg1059
g1270
sbag0
(g1051
g2
Ntp2576
Rp2577
(dp2578
g1055
I16
sg1056
I20
sg1057
g950
sg1059
g1270
sbag0
(g1051
g2
Ntp2579
Rp2580
(dp2581
g1055
I21
sg1056
I16
sg1057
g807
sg1059
g1383
sbag0
(g1051
g2
Ntp2582
Rp2583
(dp2584
g1055
I16
sg1056
I22
sg1057
g633
sg1059
g1270
sbag0
(g1051
g2
Ntp2585
Rp2586
(dp2587
g1055
I16
sg1056
I23
sg1057
(lp2588
sg1059
g1060
sbag0
(g1051
g2
Ntp2589
Rp2590
(dp2591
g1055
I16
sg1056
I24
sg1057
(lp2592
sg1059
g1060
sbaa(lp2593
g0
(g1051
g2
Ntp2594
Rp2595
(dp2596
g1055
I17
sg1056
I0
sg1057
(lp2597
sg1059
g1060
sbag0
(g1051
g2
Ntp2598
Rp2599
(dp2600
g1055
I17
sg1056
I1
sg1057
(lp2601
sg1059
g1060
sbag0
(g1051
g2
Ntp2602
Rp2603
(dp2604
g1055
I17
sg1056
I2
sg1057
(lp2605
sg1059
g1060
sbag0
(g1051
g2
Ntp2606
Rp2607
(dp2608
g1055
I17
sg1056
I3
sg1057
(lp2609
sg1059
g1060
sbag0
(g1051
g2
Ntp2610
Rp2611
(dp2612
g1055
I17
sg1056
I4
sg1057
(lp2613
sg1059
g1060
sbag0
(g1051
g2
Ntp2614
Rp2615
(dp2616
g1055
I5
sg1056
I17
sg1057
g667
sg1059
g1383
sbag0
(g1051
g2
Ntp2617
Rp2618
(dp2619
g1055
I6
sg1056
I17
sg1057
g344
sg1059
g1383
sbag0
(g1051
g2
Ntp2620
Rp2621
(dp2622
g1055
I17
sg1056
I7
sg1057
g648
sg1059
g1270
sbag0
(g1051
g2
Ntp2623
Rp2624
(dp2625
g1055
I8
sg1056
I17
sg1057
g291
sg1059
g1383
sbag0
(g1051
g2
Ntp2626
Rp2627
(dp2628
g1055
I9
sg1056
I17
sg1057
g998
sg1059
g2153
sbag0
(g1051
g2
Ntp2629
Rp2630
(dp2631
g1055
I10
sg1056
I17
sg1057
g684
sg1059
g1367
sbag0
(g1051
g2
Ntp2632
Rp2633
(dp2634
g1055
I11
sg1056
I17
sg1057
g362
sg1059
g1383
sbag0
(g1051
g2
Ntp2635
Rp2636
(dp2637
g1055
I12
sg1056
I17
sg1057
g526
sg1059
g1295
sbag0
(g1051
g2
Ntp2638
Rp2639
(dp2640
g1055
I13
sg1056
I17
sg1057
g205
sg1059
g1367
sbag0
(g1051
g2
Ntp2641
Rp2642
(dp2643
g1055
I14
sg1056
I17
sg1057
g926
sg1059
g1295
sbag0
(g1051
g2
Ntp2644
Rp2645
(dp2646
g1055
I15
sg1056
I17
sg1057
g607
sg1059
g1383
sbag0
(g1051
g2
Ntp2647
Rp2648
(dp2649
g1055
I16
sg1056
I17
sg1057
g871
sg1059
g1383
sbag0
(g1051
g2
Ntp2650
Rp2651
(dp2652
g1055
I17
sg1056
I17
sg1057
g545
sg1059
g1383
sbag0
(g1051
g2
Ntp2653
Rp2654
(dp2655
g1055
I18
sg1056
I17
sg1057
g226
sg1059
g2153
sbag0
(g1051
g2
Ntp2656
Rp2657
(dp2658
g1055
I19
sg1056
I17
sg1057
g947
sg1059
g1383
sbag0
(g1051
g2
Ntp2659
Rp2660
(dp2661
g1055
I20
sg1056
I17
sg1057
g45
sg1059
g1383
sbag0
(g1051
g2
Ntp2662
Rp2663
(dp2664
g1055
I21
sg1056
I17
sg1057
g784
sg1059
g1383
sbag0
(g1051
g2
Ntp2665
Rp2666
(dp2667
g1055
I17
sg1056
I22
sg1057
g460
sg1059
g1270
sbag0
(g1051
g2
Ntp2668
Rp2669
(dp2670
g1055
I17
sg1056
I23
sg1057
(lp2671
sg1059
g1060
sbag0
(g1051
g2
Ntp2672
Rp2673
(dp2674
g1055
I17
sg1056
I24
sg1057
(lp2675
sg1059
g1060
sbaa(lp2676
g0
(g1051
g2
Ntp2677
Rp2678
(dp2679
g1055
I18
sg1056
I0
sg1057
(lp2680
sg1059
g1060
sbag0
(g1051
g2
Ntp2681
Rp2682
(dp2683
g1055
I18
sg1056
I1
sg1057
(lp2684
sg1059
g1060
sbag0
(g1051
g2
Ntp2685
Rp2686
(dp2687
g1055
I18
sg1056
I2
sg1057
(lp2688
sg1059
g1060
sbag0
(g1051
g2
Ntp2689
Rp2690
(dp2691
g1055
I18
sg1056
I3
sg1057
(lp2692
sg1059
g1060
sbag0
(g1051
g2
Ntp2693
Rp2694
(dp2695
g1055
I18
sg1056
I4
sg1057
(lp2696
sg1059
g1060
sbag0
(g1051
g2
Ntp2697
Rp2698
(dp2699
g1055
I18
sg1056
I5
sg1057
(lp2700
sg1059
g1060
sbag0
(g1051
g2
Ntp2701
Rp2702
(dp2703
g1055
I6
sg1056
I18
sg1057
g457
sg1059
g1383
sbag0
(g1051
g2
Ntp2704
Rp2705
(dp2706
g1055
I18
sg1056
I7
sg1057
g780
sg1059
g1270
sbag0
(g1051
g2
Ntp2707
Rp2708
(dp2709
g1055
I8
sg1056
I18
sg1057
g868
sg1059
g1295
sbag0
(g1051
g2
Ntp2710
Rp2711
(dp2712
g1055
I18
sg1056
I9
sg1057
g143
sg1059
g1270
sbag0
(g1051
g2
Ntp2713
Rp2714
(dp2715
g1055
I18
sg1056
I10
sg1057
g153
sg1059
g1270
sbag0
(g1051
g2
Ntp2716
Rp2717
(dp2718
g1055
I18
sg1056
I11
sg1057
g541
sg1059
g1270
sbag0
(g1051
g2
Ntp2719
Rp2720
(dp2721
g1055
I18
sg1056
I12
sg1057
g629
sg1059
g1270
sbag0
(g1051
g2
Ntp2722
Rp2723
(dp2724
g1055
I13
sg1056
I18
sg1057
g944
sg1059
g1383
sbag0
(g1051
g2
Ntp2725
Rp2726
(dp2727
g1055
I18
sg1056
I14
sg1057
g1008
sg1059
g1270
sbag0
(g1051
g2
Ntp2728
Rp2729
(dp2730
g1055
I18
sg1056
I15
sg1057
g301
sg1059
g1270
sbag0
(g1051
g2
Ntp2731
Rp2732
(dp2733
g1055
I18
sg1056
I16
sg1057
g377
sg1059
g1270
sbag0
(g1051
g2
Ntp2734
Rp2735
(dp2736
g1055
I18
sg1056
I17
sg1057
g694
sg1059
g1270
sbag0
(g1051
g2
Ntp2737
Rp2738
(dp2739
g1055
I18
sg1056
I18
sg1057
g803
sg1059
g1270
sbag0
(g1051
g2
Ntp2740
Rp2741
(dp2742
g1055
I18
sg1056
I19
sg1057
g59
sg1059
g1270
sbag0
(g1051
g2
Ntp2743
Rp2744
(dp2745
g1055
I18
sg1056
I20
sg1057
g157
sg1059
g1270
sbag0
(g1051
g2
Ntp2746
Rp2747
(dp2748
g1055
I21
sg1056
I18
sg1057
g473
sg1059
g1383
sbag0
(g1051
g2
Ntp2749
Rp2750
(dp2751
g1055
I18
sg1056
I22
sg1057
g555
sg1059
g1270
sbag0
(g1051
g2
Ntp2752
Rp2753
(dp2754
g1055
I18
sg1056
I23
sg1057
(lp2755
sg1059
g1060
sbag0
(g1051
g2
Ntp2756
Rp2757
(dp2758
g1055
I18
sg1056
I24
sg1057
(lp2759
sg1059
g1060
sbaa(lp2760
g0
(g1051
g2
Ntp2761
Rp2762
(dp2763
g1055
I19
sg1056
I0
sg1057
(lp2764
sg1059
g1060
sbag0
(g1051
g2
Ntp2765
Rp2766
(dp2767
g1055
I19
sg1056
I1
sg1057
(lp2768
sg1059
g1060
sbag0
(g1051
g2
Ntp2769
Rp2770
(dp2771
g1055
I19
sg1056
I2
sg1057
(lp2772
sg1059
g1060
sbag0
(g1051
g2
Ntp2773
Rp2774
(dp2775
g1055
I19
sg1056
I3
sg1057
(lp2776
sg1059
g1060
sbag0
(g1051
g2
Ntp2777
Rp2778
(dp2779
g1055
I19
sg1056
I4
sg1057
(lp2780
sg1059
g1060
sbag0
(g1051
g2
Ntp2781
Rp2782
(dp2783
g1055
I19
sg1056
I5
sg1057
(lp2784
sg1059
g1060
sbag0
(g1051
g2
Ntp2785
Rp2786
(dp2787
g1055
I6
sg1056
I19
sg1057
g681
sg1059
g1383
sbag0
(g1051
g2
Ntp2788
Rp2789
(dp2790
g1055
I19
sg1056
I7
sg1057
g358
sg1059
g1270
sbag0
(g1051
g2
Ntp2791
Rp2792
(dp2793
g1055
I8
sg1056
I19
sg1057
g552
sg1059
g1295
sbag0
(g1051
g2
Ntp2794
Rp2795
(dp2796
g1055
I19
sg1056
I9
sg1057
g211
sg1059
g1270
sbag0
(g1051
g2
Ntp2797
Rp2798
(dp2799
g1055
I10
sg1056
I19
sg1057
g374
sg1059
g1383
sbag0
(g1051
g2
Ntp2800
Rp2801
(dp2802
g1055
I11
sg1056
I19
sg1057
g371
sg1059
g1383
sbag0
(g1051
g2
Ntp2803
Rp2804
(dp2805
g1055
I19
sg1056
I12
sg1057
g835
sg1059
g1270
sbag0
(g1051
g2
Ntp2806
Rp2807
(dp2808
g1055
I13
sg1056
I19
sg1057
g535
sg1059
g1383
sbag0
(g1051
g2
Ntp2809
Rp2810
(dp2811
g1055
I19
sg1056
I14
sg1057
g587
sg1059
g1270
sbag0
(g1051
g2
Ntp2812
Rp2813
(dp2814
g1055
I15
sg1056
I19
sg1057
g856
sg1059
g1367
sbag0
(g1051
g2
Ntp2815
Rp2816
(dp2817
g1055
I16
sg1056
I19
sg1057
g258
sg1059
g1367
sbag0
(g1051
g2
Ntp2818
Rp2819
(dp2820
g1055
I17
sg1056
I19
sg1057
g419
sg1059
g1383
sbag0
(g1051
g2
Ntp2821
Rp2822
(dp2823
g1055
I18
sg1056
I19
sg1057
g958
sg1059
g1367
sbag0
(g1051
g2
Ntp2824
Rp2825
(dp2826
g1055
I19
sg1056
I19
sg1057
g93
sg1059
g2153
sbag0
(g1051
g2
Ntp2827
Rp2828
(dp2829
g1055
I19
sg1056
I20
sg1057
g637
sg1059
g1270
sbag0
(g1051
g2
Ntp2830
Rp2831
(dp2832
g1055
I21
sg1056
I19
sg1057
g810
sg1059
g1462
sbag0
(g1051
g2
Ntp2833
Rp2834
(dp2835
g1055
I19
sg1056
I22
sg1057
g297
sg1059
g1270
sbag0
(g1051
g2
Ntp2836
Rp2837
(dp2838
g1055
I19
sg1056
I23
sg1057
(lp2839
sg1059
g1060
sbag0
(g1051
g2
Ntp2840
Rp2841
(dp2842
g1055
I19
sg1056
I24
sg1057
(lp2843
sg1059
g1060
sbaa(lp2844
g0
(g1051
g2
Ntp2845
Rp2846
(dp2847
g1055
I20
sg1056
I0
sg1057
(lp2848
sg1059
g1060
sbag0
(g1051
g2
Ntp2849
Rp2850
(dp2851
g1055
I20
sg1056
I1
sg1057
(lp2852
sg1059
g1060
sbag0
(g1051
g2
Ntp2853
Rp2854
(dp2855
g1055
I20
sg1056
I2
sg1057
(lp2856
sg1059
g1060
sbag0
(g1051
g2
Ntp2857
Rp2858
(dp2859
g1055
I20
sg1056
I3
sg1057
(lp2860
sg1059
g1060
sbag0
(g1051
g2
Ntp2861
Rp2862
(dp2863
g1055
I4
sg1056
I20
sg1057
g749
sg1059
g1383
sbag0
(g1051
g2
Ntp2864
Rp2865
(dp2866
g1055
I5
sg1056
I20
sg1057
g470
sg1059
g1383
sbag0
(g1051
g2
Ntp2867
Rp2868
(dp2869
g1055
I6
sg1056
I20
sg1057
g796
sg1059
g1383
sbag0
(g1051
g2
Ntp2870
Rp2871
(dp2872
g1055
I20
sg1056
I7
sg1057
g55
sg1059
g1270
sbag0
(g1051
g2
Ntp2873
Rp2874
(dp2875
g1055
I8
sg1056
I20
sg1057
g129
sg1059
g1383
sbag0
(g1051
g2
Ntp2876
Rp2877
(dp2878
g1055
I20
sg1056
I9
sg1057
g652
sg1059
g1270
sbag0
(g1051
g2
Ntp2879
Rp2880
(dp2881
g1055
I20
sg1056
I10
sg1057
g329
sg1059
g1270
sbag0
(g1051
g2
Ntp2882
Rp2883
(dp2884
g1055
I11
sg1056
I20
sg1057
g312
sg1059
g1295
sbag0
(g1051
g2
Ntp2885
Rp2886
(dp2887
g1055
I20
sg1056
I12
sg1057
g734
sg1059
g1270
sbag0
(g1051
g2
Ntp2888
Rp2889
(dp2890
g1055
I13
sg1056
I20
sg1057
g288
sg1059
g1295
sbag0
(g1051
g2
Ntp2891
Rp2892
(dp2893
g1055
I20
sg1056
I14
sg1057
g250
sg1059
g1270
sbag0
(g1051
g2
Ntp2894
Rp2895
(dp2896
g1055
I15
sg1056
I20
sg1057
g981
sg1059
g1383
sbag0
(g1051
g2
Ntp2897
Rp2898
(dp2899
g1055
I20
sg1056
I16
sg1057
g538
sg1059
g1270
sbag0
(g1051
g2
Ntp2900
Rp2901
(dp2902
g1055
I17
sg1056
I20
sg1057
g236
sg1059
g1367
sbag0
(g1051
g2
Ntp2903
Rp2904
(dp2905
g1055
I18
sg1056
I20
sg1057
g517
sg1059
g1383
sbag0
(g1051
g2
Ntp2906
Rp2907
(dp2908
g1055
I19
sg1056
I20
sg1057
g355
sg1059
g2153
sbag0
(g1051
g2
Ntp2909
Rp2910
(dp2911
g1055
I20
sg1056
I20
sg1057
g66
sg1059
g1270
sbag0
(g1051
g2
Ntp2912
Rp2913
(dp2914
g1055
I21
sg1056
I20
sg1057
g1021
sg1059
g1295
sbag0
(g1051
g2
Ntp2915
Rp2916
(dp2917
g1055
I20
sg1056
I22
sg1057
g881
sg1059
g1270
sbag0
(g1051
g2
Ntp2918
Rp2919
(dp2920
g1055
I20
sg1056
I23
sg1057
(lp2921
sg1059
g1060
sbag0
(g1051
g2
Ntp2922
Rp2923
(dp2924
g1055
I20
sg1056
I24
sg1057
(lp2925
sg1059
g1060
sbaa(lp2926
g0
(g1051
g2
Ntp2927
Rp2928
(dp2929
g1055
I21
sg1056
I0
sg1057
(lp2930
sg1059
g1060
sbag0
(g1051
g2
Ntp2931
Rp2932
(dp2933
g1055
I21
sg1056
I1
sg1057
(lp2934
sg1059
g1060
sbag0
(g1051
g2
Ntp2935
Rp2936
(dp2937
g1055
I21
sg1056
I2
sg1057
(lp2938
sg1059
g1060
sbag0
(g1051
g2
Ntp2939
Rp2940
(dp2941
g1055
I3
sg1056
I21
sg1057
g1015
sg1059
g1367
sbag0
(g1051
g2
Ntp2942
Rp2943
(dp2944
g1055
I21
sg1056
I4
sg1057
g704
sg1059
g1270
sbag0
(g1051
g2
Ntp2945
Rp2946
(dp2947
g1055
I21
sg1056
I5
sg1057
g385
sg1059
g1270
sbag0
(g1051
g2
Ntp2948
Rp2949
(dp2950
g1055
I21
sg1056
I6
sg1057
g70
sg1059
g1270
sbag0
(g1051
g2
Ntp2951
Rp2952
(dp2953
g1055
I21
sg1056
I7
sg1057
g492
sg1059
g1270
sbag0
(g1051
g2
Ntp2954
Rp2955
(dp2956
g1055
I8
sg1056
I21
sg1057
g63
sg1059
g1295
sbag0
(g1051
g2
Ntp2957
Rp2958
(dp2959
g1055
I9
sg1056
I21
sg1057
g626
sg1059
g1367
sbag0
(g1051
g2
Ntp2960
Rp2961
(dp2962
g1055
I10
sg1056
I21
sg1057
g326
sg1059
g1383
sbag0
(g1051
g2
Ntp2963
Rp2964
(dp2965
g1055
I11
sg1056
I21
sg1057
g576
sg1059
g1367
sbag0
(g1051
g2
Ntp2966
Rp2967
(dp2968
g1055
I21
sg1056
I12
sg1057
g730
sg1059
g1270
sbag0
(g1051
g2
Ntp2969
Rp2970
(dp2971
g1055
I13
sg1056
I21
sg1057
g902
sg1059
g1367
sbag0
(g1051
g2
Ntp2972
Rp2973
(dp2974
g1055
I21
sg1056
I14
sg1057
g399
sg1059
g1270
sbag0
(g1051
g2
Ntp2975
Rp2976
(dp2977
g1055
I15
sg1056
I21
sg1057
g229
sg1059
g1295
sbag0
(g1051
g2
Ntp2978
Rp2979
(dp2980
g1055
I21
sg1056
I16
sg1057
g24
sg1059
g1270
sbag0
(g1051
g2
Ntp2981
Rp2982
(dp2983
g1055
I21
sg1056
I17
sg1057
g970
sg1059
g1270
sbag0
(g1051
g2
Ntp2984
Rp2985
(dp2986
g1055
I21
sg1056
I18
sg1057
g113
sg1059
g1270
sbag0
(g1051
g2
Ntp2987
Rp2988
(dp2989
g1055
I21
sg1056
I19
sg1057
g271
sg1059
g1270
sbag0
(g1051
g2
Ntp2990
Rp2991
(dp2992
g1055
I21
sg1056
I20
sg1057
g617
sg1059
g1270
sbag0
(g1051
g2
Ntp2993
Rp2994
(dp2995
g1055
I21
sg1056
I21
sg1057
g698
sg1059
g1383
sbag0
(g1051
g2
Ntp2996
Rp2997
(dp2998
g1055
I21
sg1056
I22
sg1057
g799
sg1059
g1270
sbag0
(g1051
g2
Ntp2999
Rp3000
(dp3001
g1055
I21
sg1056
I23
sg1057
(lp3002
sg1059
g1060
sbag0
(g1051
g2
Ntp3003
Rp3004
(dp3005
g1055
I21
sg1056
I24
sg1057
(lp3006
sg1059
g1060
sbaa(lp3007
g0
(g1051
g2
Ntp3008
Rp3009
(dp3010
g1055
I22
sg1056
I0
sg1057
(lp3011
sg1059
g1060
sbag0
(g1051
g2
Ntp3012
Rp3013
(dp3014
g1055
I22
sg1056
I1
sg1057
(lp3015
sg1059
g1060
sbag0
(g1051
g2
Ntp3016
Rp3017
(dp3018
g1055
I22
sg1056
I2
sg1057
(lp3019
sg1059
g1060
sbag0
(g1051
g2
Ntp3020
Rp3021
(dp3022
g1055
I3
sg1056
I22
sg1057
g164
sg1059
g1383
sbag0
(g1051
g2
Ntp3023
Rp3024
(dp3025
g1055
I22
sg1056
I4
sg1057
g701
sg1059
g1270
sbag0
(g1051
g2
Ntp3026
Rp3027
(dp3028
g1055
I5
sg1056
I22
sg1057
g1012
sg1059
g1295
sbag0
(g1051
g2
Ntp3029
Rp3030
(dp3031
g1055
I6
sg1056
I22
sg1057
g305
sg1059
g1383
sbag0
(g1051
g2
Ntp3032
Rp3033
(dp3034
g1055
I22
sg1056
I7
sg1057
g381
sg1059
g1270
sbag0
(g1051
g2
Ntp3035
Rp3036
(dp3037
g1055
I22
sg1056
I8
sg1057
g1027
sg1059
g1270
sbag0
(g1051
g2
Ntp3038
Rp3039
(dp3040
g1055
I22
sg1056
I9
sg1057
g308
sg1059
g1270
sbag0
(g1051
g2
Ntp3041
Rp3042
(dp3043
g1055
I22
sg1056
I10
sg1057
g403
sg1059
g1270
sbag0
(g1051
g2
Ntp3044
Rp3045
(dp3046
g1055
I22
sg1056
I11
sg1057
g719
sg1059
g1270
sbag0
(g1051
g2
Ntp3047
Rp3048
(dp3049
g1055
I22
sg1056
I12
sg1057
g242
sg1059
g1270
sbag0
(g1051
g2
Ntp3050
Rp3051
(dp3052
g1055
I22
sg1056
I13
sg1057
g562
sg1059
g1270
sbag0
(g1051
g2
Ntp3053
Rp3054
(dp3055
g1055
I22
sg1056
I14
sg1057
g641
sg1059
g1270
sbag0
(g1051
g2
Ntp3056
Rp3057
(dp3058
g1055
I15
sg1056
I22
sg1057
g434
sg1059
g1383
sbag0
(g1051
g2
Ntp3059
Rp3060
(dp3061
g1055
I16
sg1056
I22
sg1057
g365
sg1059
g1367
sbag0
(g1051
g2
Ntp3062
Rp3063
(dp3064
g1055
I17
sg1056
I22
sg1057
g687
sg1059
g1295
sbag0
(g1051
g2
Ntp3065
Rp3066
(dp3067
g1055
I18
sg1056
I22
sg1057
g790
sg1059
g1367
sbag0
(g1051
g2
Ntp3068
Rp3069
(dp3070
g1055
I19
sg1056
I22
sg1057
g48
sg1059
g1295
sbag0
(g1051
g2
Ntp3071
Rp3072
(dp3073
g1055
I22
sg1056
I20
sg1057
g613
sg1059
g1270
sbag0
(g1051
g2
Ntp3074
Rp3075
(dp3076
g1055
I22
sg1056
I21
sg1057
g933
sg1059
g1270
sbag0
(g1051
g2
Ntp3077
Rp3078
(dp3079
g1055
I22
sg1056
I22
sg1057
g1001
sg1059
g1270
sbag0
(g1051
g2
Ntp3080
Rp3081
(dp3082
g1055
I22
sg1056
I23
sg1057
(lp3083
sg1059
g1060
sbag0
(g1051
g2
Ntp3084
Rp3085
(dp3086
g1055
I22
sg1056
I24
sg1057
(lp3087
sg1059
g1060
sbaa(lp3088
g0
(g1051
g2
Ntp3089
Rp3090
(dp3091
g1055
I23
sg1056
I0
sg1057
(lp3092
sg1059
g1060
sbag0
(g1051
g2
Ntp3093
Rp3094
(dp3095
g1055
I23
sg1056
I1
sg1057
(lp3096
sg1059
g1060
sbag0
(g1051
g2
Ntp3097
Rp3098
(dp3099
g1055
I23
sg1056
I2
sg1057
(lp3100
sg1059
g1060
sbag0
(g1051
g2
Ntp3101
Rp3102
(dp3103
g1055
I23
sg1056
I3
sg1057
(lp3104
sg1059
g1060
sbag0
(g1051
g2
Ntp3105
Rp3106
(dp3107
g1055
I23
sg1056
I4
sg1057
(lp3108
sg1059
g1060
sbag0
(g1051
g2
Ntp3109
Rp3110
(dp3111
g1055
I23
sg1056
I5
sg1057
(lp3112
sg1059
g1060
sbag0
(g1051
g2
Ntp3113
Rp3114
(dp3115
g1055
I23
sg1056
I6
sg1057
(lp3116
sg1059
g1060
sbag0
(g1051
g2
Ntp3117
Rp3118
(dp3119
g1055
I23
sg1056
I7
sg1057
(lp3120
sg1059
g1060
sbag0
(g1051
g2
Ntp3121
Rp3122
(dp3123
g1055
I23
sg1056
I8
sg1057
(lp3124
sg1059
g1060
sbag0
(g1051
g2
Ntp3125
Rp3126
(dp3127
g1055
I23
sg1056
I9
sg1057
(lp3128
sg1059
g1060
sbag0
(g1051
g2
Ntp3129
Rp3130
(dp3131
g1055
I23
sg1056
I10
sg1057
(lp3132
sg1059
g1060
sbag0
(g1051
g2
Ntp3133
Rp3134
(dp3135
g1055
I23
sg1056
I11
sg1057
(lp3136
sg1059
g1060
sbag0
(g1051
g2
Ntp3137
Rp3138
(dp3139
g1055
I23
sg1056
I12
sg1057
(lp3140
sg1059
g1060
sbag0
(g1051
g2
Ntp3141
Rp3142
(dp3143
g1055
I23
sg1056
I13
sg1057
(lp3144
sg1059
g1060
sbag0
(g1051
g2
Ntp3145
Rp3146
(dp3147
g1055
I23
sg1056
I14
sg1057
(lp3148
sg1059
g1060
sbag0
(g1051
g2
Ntp3149
Rp3150
(dp3151
g1055
I23
sg1056
I15
sg1057
(lp3152
sg1059
g1060
sbag0
(g1051
g2
Ntp3153
Rp3154
(dp3155
g1055
I23
sg1056
I16
sg1057
(lp3156
sg1059
g1060
sbag0
(g1051
g2
Ntp3157
Rp3158
(dp3159
g1055
I23
sg1056
I17
sg1057
(lp3160
sg1059
g1060
sbag0
(g1051
g2
Ntp3161
Rp3162
(dp3163
g1055
I23
sg1056
I18
sg1057
(lp3164
sg1059
g1060
sbag0
(g1051
g2
Ntp3165
Rp3166
(dp3167
g1055
I23
sg1056
I19
sg1057
(lp3168
sg1059
g1060
sbag0
(g1051
g2
Ntp3169
Rp3170
(dp3171
g1055
I23
sg1056
I20
sg1057
(lp3172
sg1059
g1060
sbag0
(g1051
g2
Ntp3173
Rp3174
(dp3175
g1055
I23
sg1056
I21
sg1057
(lp3176
sg1059
g1060
sbag0
(g1051
g2
Ntp3177
Rp3178
(dp3179
g1055
I23
sg1056
I22
sg1057
(lp3180
sg1059
g1060
sbag0
(g1051
g2
Ntp3181
Rp3182
(dp3183
g1055
I23
sg1056
I23
sg1057
(lp3184
sg1059
g1060
sbag0
(g1051
g2
Ntp3185
Rp3186
(dp3187
g1055
I23
sg1056
I24
sg1057
(lp3188
sg1059
g1060
sbaa(lp3189
g0
(g1051
g2
Ntp3190
Rp3191
(dp3192
g1055
I24
sg1056
I0
sg1057
(lp3193
sg1059
g1060
sbag0
(g1051
g2
Ntp3194
Rp3195
(dp3196
g1055
I24
sg1056
I1
sg1057
(lp3197
sg1059
g1060
sbag0
(g1051
g2
Ntp3198
Rp3199
(dp3200
g1055
I24
sg1056
I2
sg1057
(lp3201
sg1059
g1060
sbag0
(g1051
g2
Ntp3202
Rp3203
(dp3204
g1055
I24
sg1056
I3
sg1057
(lp3205
sg1059
g1060
sbag0
(g1051
g2
Ntp3206
Rp3207
(dp3208
g1055
I24
sg1056
I4
sg1057
(lp3209
sg1059
g1060
sbag0
(g1051
g2
Ntp3210
Rp3211
(dp3212
g1055
I24
sg1056
I5
sg1057
(lp3213
sg1059
g1060
sbag0
(g1051
g2
Ntp3214
Rp3215
(dp3216
g1055
I24
sg1056
I6
sg1057
(lp3217
sg1059
g1060
sbag0
(g1051
g2
Ntp3218
Rp3219
(dp3220
g1055
I24
sg1056
I7
sg1057
(lp3221
sg1059
g1060
sbag0
(g1051
g2
Ntp3222
Rp3223
(dp3224
g1055
I24
sg1056
I8
sg1057
(lp3225
sg1059
g1060
sbag0
(g1051
g2
Ntp3226
Rp3227
(dp3228
g1055
I24
sg1056
I9
sg1057
(lp3229
sg1059
g1060
sbag0
(g1051
g2
Ntp3230
Rp3231
(dp3232
g1055
I24
sg1056
I10
sg1057
(lp3233
sg1059
g1060
sbag0
(g1051
g2
Ntp3234
Rp3235
(dp3236
g1055
I24
sg1056
I11
sg1057
(lp3237
sg1059
g1060
sbag0
(g1051
g2
Ntp3238
Rp3239
(dp3240
g1055
I24
sg1056
I12
sg1057
(lp3241
sg1059
g1060
sbag0
(g1051
g2
Ntp3242
Rp3243
(dp3244
g1055
I24
sg1056
I13
sg1057
(lp3245
sg1059
g1060
sbag0
(g1051
g2
Ntp3246
Rp3247
(dp3248
g1055
I24
sg1056
I14
sg1057
(lp3249
sg1059
g1060
sbag0
(g1051
g2
Ntp3250
Rp3251
(dp3252
g1055
I24
sg1056
I15
sg1057
(lp3253
sg1059
g1060
sbag0
(g1051
g2
Ntp3254
Rp3255
(dp3256
g1055
I24
sg1056
I16
sg1057
(lp3257
sg1059
g1060
sbag0
(g1051
g2
Ntp3258
Rp3259
(dp3260
g1055
I24
sg1056
I17
sg1057
(lp3261
sg1059
g1060
sbag0
(g1051
g2
Ntp3262
Rp3263
(dp3264
g1055
I24
sg1056
I18
sg1057
(lp3265
sg1059
g1060
sbag0
(g1051
g2
Ntp3266
Rp3267
(dp3268
g1055
I24
sg1056
I19
sg1057
(lp3269
sg1059
g1060
sbag0
(g1051
g2
Ntp3270
Rp3271
(dp3272
g1055
I24
sg1056
I20
sg1057
(lp3273
sg1059
g1060
sbag0
(g1051
g2
Ntp3274
Rp3275
(dp3276
g1055
I24
sg1056
I21
sg1057
(lp3277
sg1059
g1060
sbag0
(g1051
g2
Ntp3278
Rp3279
(dp3280
g1055
I24
sg1056
I22
sg1057
(lp3281
sg1059
g1060
sbag0
(g1051
g2
Ntp3282
Rp3283
(dp3284
g1055
I24
sg1056
I23
sg1057
(lp3285
sg1059
g1060
sbag0
(g1051
g2
Ntp3286
Rp3287
(dp3288
g1055
I24
sg1056
I24
sg1057
(lp3289
sg1059
g1060
sbaasS'ludnosc'
p3290
(lp3291
g0
(cgenerowanie_swiata
konsument
p3292
g2
Ntp3293
Rp3294
(dp3295
S'zarobki'
p3296
I4560
sS'wiek'
p3297
I51
sS'okazja'
p3298
I0
sS'zainteresowania'
p3299
(lp3300
S'ogrodnictwo'
p3301
aS'fotografia'
p3302
aS'malarstwo'
p3303
asS'domx'
p3304
I14
sS'domy'
p3305
I14
sS'plec'
p3306
S'Mezczyzna'
p3307
sS'pracay'
p3308
I18
sS'pracax'
p3309
I19
sS'wyksztalcenie'
p3310
I2
sS'znajomi'
p3311
(lp3312
I21
aI97
aI62
asbag0
(g3292
g2
Ntp3313
Rp3314
(dp3315
g3296
I4500
sg3297
I59
sg3298
I0
sg3299
(lp3316
S'gry'
p3317
aS'piwowarstwo'
p3318
aS'koncerty'
p3319
asg3304
I8
sg3305
I15
sg3306
g3307
sg3308
I4
sg3309
I13
sg3310
I3
sg3311
(lp3320
I45
aI30
aI36
asbag0
(g3292
g2
Ntp3321
Rp3322
(dp3323
g3296
I3000
sg3297
I47
sg3298
I0
sg3299
(lp3324
g3319
aS'kultura'
p3325
ag3325
asg3304
I19
sg3305
I17
sg3306
g3307
sg3308
I3
sg3309
I3
sg3310
I1
sg3311
(lp3326
I57
aI13
aI0
asbag0
(g3292
g2
Ntp3327
Rp3328
(dp3329
g3296
I4560
sg3297
I57
sg3298
I0
sg3299
(lp3330
S'teatr'
p3331
ag3317
ag3331
asg3304
I8
sg3305
I15
sg3306
g3307
sg3308
I11
sg3309
I21
sg3310
I2
sg3311
(lp3332
I41
aI91
aI18
asbag0
(g3292
g2
Ntp3333
Rp3334
(dp3335
g3296
I0
sg3297
I3
sg3298
I0
sg3299
(lp3336
S'kulturaalternatywna'
p3337
aS'finanse'
p3338
aS'natura'
p3339
asg3304
I19
sg3305
I10
sg3306
g3307
sg3308
I8
sg3309
I12
sg3310
I0
sg3311
(lp3340
I52
aI88
aI8
asbag0
(g3292
g2
Ntp3341
Rp3342
(dp3343
g3296
I0
sg3297
I10
sg3298
I0
sg3299
(lp3344
S'boks'
p3345
aS'historia'
p3346
ag3319
asg3304
I12
sg3305
I4
sg3306
g3307
sg3308
I18
sg3309
I22
sg3310
I0
sg3311
(lp3347
I66
aI97
aI10
asbag0
(g3292
g2
Ntp3348
Rp3349
(dp3350
g3296
I4500
sg3297
I52
sg3298
I0
sg3299
(lp3351
S'gotowanie'
p3352
ag3331
ag3318
asg3304
I21
sg3305
I10
sg3306
g3307
sg3308
I17
sg3309
I20
sg3310
I3
sg3311
(lp3353
I12
aI1
aI49
asbag0
(g3292
g2
Ntp3354
Rp3355
(dp3356
g3296
I3600
sg3297
I28
sg3298
I0
sg3299
(lp3357
S'muzykaklasyczna'
p3358
ag3352
ag3338
asg3304
I13
sg3305
I21
sg3306
S'Kobieta'
p3359
sg3308
I4
sg3309
I15
sg3310
I2
sg3311
(lp3360
I20
aI87
aI75
asbag0
(g3292
g2
Ntp3361
Rp3362
(dp3363
g3296
I0
sg3297
I15
sg3298
I0
sg3299
(lp3364
g3325
ag3302
aS'motoryzacja'
p3365
asg3304
I19
sg3305
I17
sg3306
g3307
sg3308
I3
sg3309
I21
sg3310
I0
sg3311
(lp3366
I61
aI29
aI42
asbag0
(g3292
g2
Ntp3367
Rp3368
(dp3369
g3296
I6000
sg3297
I47
sg3298
I0
sg3299
(lp3370
g3338
ag3317
aS'nightlife'
p3371
asg3304
I18
sg3305
I21
sg3306
g3359
sg3308
I10
sg3309
I17
sg3310
I2
sg3311
(lp3372
I76
aI45
aI0
asbag0
(g3292
g2
Ntp3373
Rp3374
(dp3375
g3296
I5700
sg3297
I64
sg3298
I0
sg3299
(lp3376
g3358
ag3325
ag3319
asg3304
I7
sg3305
I5
sg3306
g3359
sg3308
I14
sg3309
I10
sg3310
I4
sg3311
(lp3377
I94
aI38
aI68
asbag0
(g3292
g2
Ntp3378
Rp3379
(dp3380
g3296
I4500
sg3297
I70
sg3298
I0
sg3299
(lp3381
g3337
ag3337
aS'ksiazki'
p3382
asg3304
I14
sg3305
I16
sg3306
g3359
sg3308
I3
sg3309
I3
sg3310
I3
sg3311
(lp3383
I6
aI35
aI44
asbag0
(g3292
g2
Ntp3384
Rp3385
(dp3386
g3296
I4560
sg3297
I86
sg3298
I0
sg3299
(lp3387
g3382
aS'moda'
p3388
ag3382
asg3304
I17
sg3305
I8
sg3306
g3307
sg3308
I3
sg3309
I6
sg3310
I2
sg3311
(lp3389
I48
aI47
aI45
asbag0
(g3292
g2
Ntp3390
Rp3391
(dp3392
g3296
I4500
sg3297
I66
sg3298
I0
sg3299
(lp3393
g3325
ag3301
ag3358
asg3304
I22
sg3305
I6
sg3306
g3359
sg3308
I10
sg3309
I17
sg3310
I3
sg3311
(lp3394
I55
aI41
aI67
asbag0
(g3292
g2
Ntp3395
Rp3396
(dp3397
g3296
I5000
sg3297
I37
sg3298
I0
sg3299
(lp3398
g3301
ag3346
ag3319
asg3304
I7
sg3305
I6
sg3306
g3359
sg3308
I13
sg3309
I10
sg3310
I3
sg3311
(lp3399
I52
aI56
aI66
asbag0
(g3292
g2
Ntp3400
Rp3401
(dp3402
g3296
I5700
sg3297
I91
sg3298
I0
sg3299
(lp3403
g3382
ag3317
ag3339
asg3304
I17
sg3305
I11
sg3306
g3307
sg3308
I18
sg3309
I19
sg3310
I4
sg3311
(lp3404
I5
aI68
aI25
asbag0
(g3292
g2
Ntp3405
Rp3406
(dp3407
g3296
I4560
sg3297
I64
sg3298
I0
sg3299
(lp3408
g3303
aS'kosmetyki'
p3409
ag3409
asg3304
I9
sg3305
I6
sg3306
g3307
sg3308
I13
sg3309
I21
sg3310
I2
sg3311
(lp3410
I12
aI48
aI25
asbag0
(g3292
g2
Ntp3411
Rp3412
(dp3413
g3296
I4560
sg3297
I51
sg3298
I0
sg3299
(lp3414
g3365
ag3317
ag3317
asg3304
I13
sg3305
I14
sg3306
g3307
sg3308
I9
sg3309
I21
sg3310
I2
sg3311
(lp3415
I84
aI43
aI77
asbag0
(g3292
g2
Ntp3416
Rp3417
(dp3418
g3296
I6000
sg3297
I45
sg3298
I0
sg3299
(lp3419
g3371
ag3338
ag3365
asg3304
I15
sg3305
I18
sg3306
g3359
sg3308
I9
sg3309
I21
sg3310
I2
sg3311
(lp3420
I9
aI30
aI97
asbag0
(g3292
g2
Ntp3421
Rp3422
(dp3423
g3296
I5700
sg3297
I61
sg3298
I0
sg3299
(lp3424
g3325
ag3301
ag3339
asg3304
I10
sg3305
I16
sg3306
g3359
sg3308
I11
sg3309
I10
sg3310
I4
sg3311
(lp3425
I82
aI56
aI61
asbag0
(g3292
g2
Ntp3426
Rp3427
(dp3428
g3296
I2800
sg3297
I28
sg3298
I0
sg3299
(lp3429
g3317
aS'ksiazka'
p3430
aS'historiapolski'
p3431
asg3304
I13
sg3305
I21
sg3306
g3307
sg3308
I16
sg3309
I22
sg3310
I1
sg3311
(lp3432
I91
aI18
aI95
asbag0
(g3292
g2
Ntp3433
Rp3434
(dp3435
g3296
I5000
sg3297
I38
sg3298
I0
sg3299
(lp3436
g3352
ag3337
ag3331
asg3304
I13
sg3305
I21
sg3306
g3307
sg3308
I16
sg3309
I16
sg3310
I3
sg3311
(lp3437
I98
aI70
aI49
asbag0
(g3292
g2
Ntp3438
Rp3439
(dp3440
g3296
I0
sg3297
I11
sg3298
I0
sg3299
(lp3441
g3301
ag3371
ag3319
asg3304
I17
sg3305
I8
sg3306
g3359
sg3308
I6
sg3309
I13
sg3310
I0
sg3311
(lp3442
I8
aI81
aI56
asbag0
(g3292
g2
Ntp3443
Rp3444
(dp3445
g3296
I3000
sg3297
I47
sg3298
I0
sg3299
(lp3446
g3301
ag3345
aS'sport'
p3447
asg3304
I19
sg3305
I17
sg3306
g3307
sg3308
I3
sg3309
I21
sg3310
I1
sg3311
(lp3448
I88
aI62
aI44
asbag0
(g3292
g2
Ntp3449
Rp3450
(dp3451
g3296
I5600
sg3297
I39
sg3298
I0
sg3299
(lp3452
g3371
ag3345
ag3303
asg3304
I20
sg3305
I15
sg3306
g3307
sg3308
I11
sg3309
I13
sg3310
I2
sg3311
(lp3453
I23
aI4
aI66
asbag0
(g3292
g2
Ntp3454
Rp3455
(dp3456
g3296
I0
sg3297
I18
sg3298
I0
sg3299
(lp3457
g3318
ag3345
ag3319
asg3304
I17
sg3305
I15
sg3306
g3307
sg3308
I13
sg3309
I17
sg3310
I0
sg3311
(lp3458
I55
aI61
aI60
asbag0
(g3292
g2
Ntp3459
Rp3460
(dp3461
g3296
I4500
sg3297
I41
sg3298
I0
sg3299
(lp3462
g3371
ag3365
ag3430
asg3304
I7
sg3305
I6
sg3306
g3359
sg3308
I16
sg3309
I22
sg3310
I3
sg3311
(lp3463
I86
aI64
aI96
asbag0
(g3292
g2
Ntp3464
Rp3465
(dp3466
g3296
I4500
sg3297
I84
sg3298
I0
sg3299
(lp3467
g3325
ag3358
ag3371
asg3304
I16
sg3305
I21
sg3306
g3359
sg3308
I16
sg3309
I22
sg3310
I3
sg3311
(lp3468
I35
aI77
aI71
asbag0
(g3292
g2
Ntp3469
Rp3470
(dp3471
g3296
I4500
sg3297
I74
sg3298
I0
sg3299
(lp3472
g3365
ag3317
ag3325
asg3304
I20
sg3305
I6
sg3306
g3359
sg3308
I13
sg3309
I17
sg3310
I3
sg3311
(lp3473
I51
aI5
aI40
asbag0
(g3292
g2
Ntp3474
Rp3475
(dp3476
g3296
I4500
sg3297
I66
sg3298
I0
sg3299
(lp3477
g3317
ag3302
ag3365
asg3304
I17
sg3305
I9
sg3306
g3307
sg3308
I20
sg3309
I13
sg3310
I3
sg3311
(lp3478
I19
aI24
aI80
asbag0
(g3292
g2
Ntp3479
Rp3480
(dp3481
g3296
I5700
sg3297
I61
sg3298
I0
sg3299
(lp3482
g3352
ag3371
ag3409
asg3304
I11
sg3305
I16
sg3306
g3359
sg3308
I16
sg3309
I19
sg3310
I4
sg3311
(lp3483
I96
aI50
aI49
asbag0
(g3292
g2
Ntp3484
Rp3485
(dp3486
g3296
I7000
sg3297
I37
sg3298
I0
sg3299
(lp3487
g3345
ag3409
ag3345
asg3304
I11
sg3305
I8
sg3306
g3307
sg3308
I13
sg3309
I10
sg3310
I4
sg3311
(lp3488
I12
aI16
aI19
asbag0
(g3292
g2
Ntp3489
Rp3490
(dp3491
g3296
I4500
sg3297
I80
sg3298
I0
sg3299
(lp3492
g3388
ag3371
ag3430
asg3304
I11
sg3305
I21
sg3306
g3359
sg3308
I6
sg3309
I3
sg3310
I3
sg3311
(lp3493
I9
aI95
aI35
asbag0
(g3292
g2
Ntp3494
Rp3495
(dp3496
g3296
I4500
sg3297
I57
sg3298
I0
sg3299
(lp3497
g3318
ag3338
ag3371
asg3304
I14
sg3305
I14
sg3306
g3307
sg3308
I11
sg3309
I9
sg3310
I3
sg3311
(lp3498
I24
aI49
aI98
asbag0
(g3292
g2
Ntp3499
Rp3500
(dp3501
g3296
I4500
sg3297
I88
sg3298
I0
sg3299
(lp3502
g3319
ag3317
ag3409
asg3304
I10
sg3305
I16
sg3306
g3359
sg3308
I16
sg3309
I22
sg3310
I3
sg3311
(lp3503
I63
aI24
aI51
asbag0
(g3292
g2
Ntp3504
Rp3505
(dp3506
g3296
I4560
sg3297
I57
sg3298
I0
sg3299
(lp3507
g3388
ag3302
ag3319
asg3304
I19
sg3305
I13
sg3306
g3359
sg3308
I9
sg3309
I13
sg3310
I2
sg3311
(lp3508
I5
aI57
aI72
asbag0
(g3292
g2
Ntp3509
Rp3510
(dp3511
g3296
I2480
sg3297
I23
sg3298
I0
sg3299
(lp3512
g3339
ag3358
ag3431
asg3304
I12
sg3305
I4
sg3306
g3359
sg3308
I13
sg3309
I10
sg3310
I2
sg3311
(lp3513
I90
aI19
aI29
asbag0
(g3292
g2
Ntp3514
Rp3515
(dp3516
g3296
I4500
sg3297
I61
sg3298
I0
sg3299
(lp3517
g3388
ag3301
ag3431
asg3304
I13
sg3305
I8
sg3306
g3307
sg3308
I9
sg3309
I13
sg3310
I3
sg3311
(lp3518
I78
aI51
aI35
asbag0
(g3292
g2
Ntp3519
Rp3520
(dp3521
g3296
I4560
sg3297
I65
sg3298
I0
sg3299
(lp3522
g3339
ag3365
ag3338
asg3304
I20
sg3305
I6
sg3306
g3307
sg3308
I6
sg3309
I3
sg3310
I2
sg3311
(lp3523
I46
aI98
aI12
asbag0
(g3292
g2
Ntp3524
Rp3525
(dp3526
g3296
I0
sg3297
I16
sg3298
I0
sg3299
(lp3527
g3337
ag3371
ag3346
asg3304
I19
sg3305
I10
sg3306
g3359
sg3308
I13
sg3309
I17
sg3310
I0
sg3311
(lp3528
I44
aI96
aI10
asbag0
(g3292
g2
Ntp3529
Rp3530
(dp3531
g3296
I7500
sg3297
I45
sg3298
I0
sg3299
(lp3532
g3345
ag3365
ag3331
asg3304
I10
sg3305
I4
sg3306
g3359
sg3308
I13
sg3309
I21
sg3310
I4
sg3311
(lp3533
I29
aI6
aI33
asbag0
(g3292
g2
Ntp3534
Rp3535
(dp3536
g3296
I4500
sg3297
I64
sg3298
I0
sg3299
(lp3537
g3409
ag3301
ag3430
asg3304
I19
sg3305
I6
sg3306
g3307
sg3308
I10
sg3309
I17
sg3310
I3
sg3311
(lp3538
I49
aI35
aI71
asbag0
(g3292
g2
Ntp3539
Rp3540
(dp3541
g3296
I3100
sg3297
I36
sg3298
I0
sg3299
(lp3542
g3319
ag3318
ag3388
asg3304
I12
sg3305
I4
sg3306
g3307
sg3308
I18
sg3309
I22
sg3310
I1
sg3311
(lp3543
I55
aI80
aI21
asbag0
(g3292
g2
Ntp3544
Rp3545
(dp3546
g3296
I4560
sg3297
I62
sg3298
I0
sg3299
(lp3547
g3371
ag3338
ag3301
asg3304
I4
sg3305
I3
sg3306
g3307
sg3308
I13
sg3309
I11
sg3310
I2
sg3311
(lp3548
I31
aI86
aI8
asbag0
(g3292
g2
Ntp3549
Rp3550
(dp3551
g3296
I4500
sg3297
I46
sg3298
I0
sg3299
(lp3552
g3382
ag3431
ag3447
asg3304
I14
sg3305
I4
sg3306
g3307
sg3308
I13
sg3309
I17
sg3310
I3
sg3311
(lp3553
I7
aI38
aI50
asbag0
(g3292
g2
Ntp3554
Rp3555
(dp3556
g3296
I4560
sg3297
I60
sg3298
I0
sg3299
(lp3557
g3409
ag3430
ag3382
asg3304
I10
sg3305
I4
sg3306
g3307
sg3308
I18
sg3309
I22
sg3310
I2
sg3311
(lp3558
I22
aI68
aI52
asbag0
(g3292
g2
Ntp3559
Rp3560
(dp3561
g3296
I3000
sg3297
I71
sg3298
I0
sg3299
(lp3562
g3346
ag3302
ag3430
asg3304
I3
sg3305
I9
sg3306
g3359
sg3308
I13
sg3309
I11
sg3310
I1
sg3311
(lp3563
I84
aI25
aI74
asbag0
(g3292
g2
Ntp3564
Rp3565
(dp3566
g3296
I6000
sg3297
I31
sg3298
I0
sg3299
(lp3567
g3447
ag3302
ag3409
asg3304
I16
sg3305
I4
sg3306
g3359
sg3308
I9
sg3309
I13
sg3310
I4
sg3311
(lp3568
I34
aI12
aI64
asbag0
(g3292
g2
Ntp3569
Rp3570
(dp3571
g3296
I0
sg3297
I2
sg3298
I0
sg3299
(lp3572
g3317
ag3346
ag3331
asg3304
I12
sg3305
I11
sg3306
g3359
sg3308
I10
sg3309
I17
sg3310
I0
sg3311
(lp3573
I46
aI87
aI61
asbag0
(g3292
g2
Ntp3574
Rp3575
(dp3576
g3296
I4500
sg3297
I55
sg3298
I0
sg3299
(lp3577
g3339
ag3352
ag3302
asg3304
I5
sg3305
I6
sg3306
g3307
sg3308
I20
sg3309
I13
sg3310
I3
sg3311
(lp3578
I29
aI18
aI3
asbag0
(g3292
g2
Ntp3579
Rp3580
(dp3581
g3296
I5600
sg3297
I38
sg3298
I0
sg3299
(lp3582
g3319
ag3319
ag3430
asg3304
I7
sg3305
I8
sg3306
g3307
sg3308
I18
sg3309
I22
sg3310
I2
sg3311
(lp3583
I2
aI6
aI63
asbag0
(g3292
g2
Ntp3584
Rp3585
(dp3586
g3296
I6000
sg3297
I41
sg3298
I0
sg3299
(lp3587
g3338
ag3352
ag3345
asg3304
I18
sg3305
I6
sg3306
g3359
sg3308
I13
sg3309
I10
sg3310
I2
sg3311
(lp3588
I28
aI53
aI89
asbag0
(g3292
g2
Ntp3589
Rp3590
(dp3591
g3296
I4500
sg3297
I68
sg3298
I0
sg3299
(lp3592
g3365
ag3337
ag3365
asg3304
I20
sg3305
I4
sg3306
g3307
sg3308
I6
sg3309
I3
sg3310
I3
sg3311
(lp3593
I43
aI26
aI19
asbag0
(g3292
g2
Ntp3594
Rp3595
(dp3596
g3296
I3600
sg3297
I27
sg3298
I0
sg3299
(lp3597
g3409
ag3447
ag3331
asg3304
I7
sg3305
I4
sg3306
g3307
sg3308
I8
sg3309
I9
sg3310
I2
sg3311
(lp3598
I84
aI16
aI35
asbag0
(g3292
g2
Ntp3599
Rp3600
(dp3601
g3296
I5000
sg3297
I40
sg3298
I0
sg3299
(lp3602
g3331
ag3301
ag3318
asg3304
I20
sg3305
I4
sg3306
g3359
sg3308
I3
sg3309
I3
sg3310
I3
sg3311
(lp3603
I12
aI23
aI34
asbag0
(g3292
g2
Ntp3604
Rp3605
(dp3606
g3296
I3500
sg3297
I26
sg3298
I0
sg3299
(lp3607
g3338
ag3302
ag3358
asg3304
I17
sg3305
I19
sg3306
g3359
sg3308
I6
sg3309
I13
sg3310
I3
sg3311
(lp3608
I83
aI96
aI98
asbag0
(g3292
g2
Ntp3609
Rp3610
(dp3611
g3296
I3100
sg3297
I22
sg3298
I0
sg3299
(lp3612
g3358
ag3302
ag3331
asg3304
I12
sg3305
I16
sg3306
g3359
sg3308
I9
sg3309
I13
sg3310
I3
sg3311
(lp3613
I93
aI50
aI80
asbag0
(g3292
g2
Ntp3614
Rp3615
(dp3616
g3296
I5700
sg3297
I57
sg3298
I0
sg3299
(lp3617
g3301
ag3318
ag3319
asg3304
I16
sg3305
I21
sg3306
g3307
sg3308
I4
sg3309
I15
sg3310
I4
sg3311
(lp3618
I5
aI77
aI21
asbag0
(g3292
g2
Ntp3619
Rp3620
(dp3621
g3296
I6000
sg3297
I41
sg3298
I0
sg3299
(lp3622
g3345
ag3352
ag3352
asg3304
I11
sg3305
I14
sg3306
g3307
sg3308
I6
sg3309
I13
sg3310
I2
sg3311
(lp3623
I23
aI8
aI72
asbag0
(g3292
g2
Ntp3624
Rp3625
(dp3626
g3296
I4500
sg3297
I29
sg3298
I0
sg3299
(lp3627
g3345
ag3346
ag3447
asg3304
I15
sg3305
I18
sg3306
g3359
sg3308
I9
sg3309
I21
sg3310
I4
sg3311
(lp3628
I23
aI70
aI11
asbag0
(g3292
g2
Ntp3629
Rp3630
(dp3631
g3296
I0
sg3297
I10
sg3298
I0
sg3299
(lp3632
g3317
ag3447
ag3303
asg3304
I11
sg3305
I8
sg3306
g3359
sg3308
I16
sg3309
I15
sg3310
I0
sg3311
(lp3633
I19
aI12
aI6
asbag0
(g3292
g2
Ntp3634
Rp3635
(dp3636
g3296
I4560
sg3297
I84
sg3298
I0
sg3299
(lp3637
g3302
ag3388
ag3318
asg3304
I8
sg3305
I15
sg3306
g3307
sg3308
I14
sg3309
I10
sg3310
I2
sg3311
(lp3638
I20
aI0
aI42
asbag0
(g3292
g2
Ntp3639
Rp3640
(dp3641
g3296
I5700
sg3297
I78
sg3298
I0
sg3299
(lp3642
g3331
ag3338
ag3358
asg3304
I16
sg3305
I21
sg3306
g3359
sg3308
I8
sg3309
I12
sg3310
I4
sg3311
(lp3643
I19
aI41
aI78
asbag0
(g3292
g2
Ntp3644
Rp3645
(dp3646
g3296
I3100
sg3297
I25
sg3298
I0
sg3299
(lp3647
g3346
ag3409
ag3345
asg3304
I7
sg3305
I6
sg3306
g3307
sg3308
I13
sg3309
I17
sg3310
I3
sg3311
(lp3648
I46
aI4
aI43
asbag0
(g3292
g2
Ntp3649
Rp3650
(dp3651
g3296
I4500
sg3297
I55
sg3298
I0
sg3299
(lp3652
g3337
ag3319
ag3302
asg3304
I17
sg3305
I6
sg3306
g3359
sg3308
I16
sg3309
I15
sg3310
I3
sg3311
(lp3653
I51
aI14
aI56
asbag0
(g3292
g2
Ntp3654
Rp3655
(dp3656
g3296
I4560
sg3297
I74
sg3298
I0
sg3299
(lp3657
g3365
ag3430
ag3430
asg3304
I19
sg3305
I10
sg3306
g3307
sg3308
I11
sg3309
I21
sg3310
I2
sg3311
(lp3658
I74
aI59
aI35
asbag0
(g3292
g2
Ntp3659
Rp3660
(dp3661
g3296
I3000
sg3297
I76
sg3298
I0
sg3299
(lp3662
g3431
ag3346
ag3358
asg3304
I15
sg3305
I10
sg3306
g3359
sg3308
I8
sg3309
I9
sg3310
I1
sg3311
(lp3663
I66
aI17
aI58
asbag0
(g3292
g2
Ntp3664
Rp3665
(dp3666
g3296
I3500
sg3297
I28
sg3298
I0
sg3299
(lp3667
g3409
ag3318
ag3338
asg3304
I7
sg3305
I8
sg3306
g3359
sg3308
I17
sg3309
I20
sg3310
I3
sg3311
(lp3668
I43
aI14
aI20
asbag0
(g3292
g2
Ntp3669
Rp3670
(dp3671
g3296
I5600
sg3297
I39
sg3298
I0
sg3299
(lp3672
g3430
ag3447
ag3345
asg3304
I22
sg3305
I3
sg3306
g3359
sg3308
I13
sg3309
I10
sg3310
I2
sg3311
(lp3673
I93
aI61
aI96
asbag0
(g3292
g2
Ntp3674
Rp3675
(dp3676
g3296
I7000
sg3297
I38
sg3298
I0
sg3299
(lp3677
g3352
ag3339
ag3339
asg3304
I16
sg3305
I21
sg3306
g3307
sg3308
I3
sg3309
I3
sg3310
I4
sg3311
(lp3678
I85
aI37
aI83
asbag0
(g3292
g2
Ntp3679
Rp3680
(dp3681
g3296
I4560
sg3297
I70
sg3298
I0
sg3299
(lp3682
g3388
ag3319
ag3302
asg3304
I11
sg3305
I9
sg3306
g3307
sg3308
I14
sg3309
I10
sg3310
I2
sg3311
(lp3683
I83
aI57
aI23
asbag0
(g3292
g2
Ntp3684
Rp3685
(dp3686
g3296
I4500
sg3297
I54
sg3298
I0
sg3299
(lp3687
g3319
ag3371
ag3317
asg3304
I20
sg3305
I6
sg3306
g3359
sg3308
I16
sg3309
I19
sg3310
I3
sg3311
(lp3688
I81
aI64
aI49
asbag0
(g3292
g2
Ntp3689
Rp3690
(dp3691
g3296
I5000
sg3297
I38
sg3298
I0
sg3299
(lp3692
g3352
ag3318
ag3388
asg3304
I11
sg3305
I20
sg3306
g3359
sg3308
I16
sg3309
I15
sg3310
I3
sg3311
(lp3693
I24
aI80
aI68
asbag0
(g3292
g2
Ntp3694
Rp3695
(dp3696
g3296
I2800
sg3297
I30
sg3298
I0
sg3299
(lp3697
g3303
ag3346
ag3302
asg3304
I15
sg3305
I6
sg3306
g3307
sg3308
I6
sg3309
I13
sg3310
I1
sg3311
(lp3698
I44
aI38
aI52
asbag0
(g3292
g2
Ntp3699
Rp3700
(dp3701
g3296
I0
sg3297
I7
sg3298
I0
sg3299
(lp3702
g3430
ag3371
ag3431
asg3304
I17
sg3305
I15
sg3306
g3307
sg3308
I20
sg3309
I13
sg3310
I0
sg3311
(lp3703
I80
aI61
aI74
asbag0
(g3292
g2
Ntp3704
Rp3705
(dp3706
g3296
I3100
sg3297
I20
sg3298
I0
sg3299
(lp3707
g3352
ag3430
ag3302
asg3304
I16
sg3305
I4
sg3306
g3359
sg3308
I13
sg3309
I17
sg3310
I3
sg3311
(lp3708
I34
aI23
aI48
asbag0
(g3292
g2
Ntp3709
Rp3710
(dp3711
g3296
I7500
sg3297
I46
sg3298
I0
sg3299
(lp3712
g3371
ag3358
ag3301
asg3304
I6
sg3305
I6
sg3306
g3307
sg3308
I6
sg3309
I3
sg3310
I4
sg3311
(lp3713
I22
aI58
aI20
asbag0
(g3292
g2
Ntp3714
Rp3715
(dp3716
g3296
I3000
sg3297
I83
sg3298
I0
sg3299
(lp3717
g3346
ag3346
ag3319
asg3304
I15
sg3305
I21
sg3306
g3359
sg3308
I3
sg3309
I3
sg3310
I1
sg3311
(lp3718
I22
aI70
aI53
asbag0
(g3292
g2
Ntp3719
Rp3720
(dp3721
g3296
I5600
sg3297
I37
sg3298
I0
sg3299
(lp3722
g3346
ag3345
ag3382
asg3304
I7
sg3305
I6
sg3306
g3307
sg3308
I9
sg3309
I21
sg3310
I2
sg3311
(lp3723
I16
aI76
aI63
asbag0
(g3292
g2
Ntp3724
Rp3725
(dp3726
g3296
I3000
sg3297
I71
sg3298
I0
sg3299
(lp3727
g3447
ag3409
ag3388
asg3304
I17
sg3305
I16
sg3306
g3307
sg3308
I18
sg3309
I11
sg3310
I1
sg3311
(lp3728
I13
aI14
aI68
asbag0
(g3292
g2
Ntp3729
Rp3730
(dp3731
g3296
I4500
sg3297
I77
sg3298
I0
sg3299
(lp3732
g3352
ag3358
ag3338
asg3304
I8
sg3305
I8
sg3306
g3359
sg3308
I8
sg3309
I12
sg3310
I3
sg3311
(lp3733
I47
aI56
aI6
asbag0
(g3292
g2
Ntp3734
Rp3735
(dp3736
g3296
I5700
sg3297
I71
sg3298
I0
sg3299
(lp3737
g3337
ag3346
ag3352
asg3304
I19
sg3305
I6
sg3306
g3307
sg3308
I11
sg3309
I10
sg3310
I4
sg3311
(lp3738
I36
aI2
aI27
asbag0
(g3292
g2
Ntp3739
Rp3740
(dp3741
g3296
I4560
sg3297
I54
sg3298
I0
sg3299
(lp3742
g3303
ag3431
ag3303
asg3304
I10
sg3305
I16
sg3306
g3307
sg3308
I11
sg3309
I10
sg3310
I2
sg3311
(lp3743
I50
aI52
aI76
asbag0
(g3292
g2
Ntp3744
Rp3745
(dp3746
g3296
I4500
sg3297
I47
sg3298
I0
sg3299
(lp3747
g3371
ag3345
ag3301
asg3304
I9
sg3305
I9
sg3306
g3307
sg3308
I16
sg3309
I19
sg3310
I3
sg3311
(lp3748
I90
aI80
aI81
asbag0
(g3292
g2
Ntp3749
Rp3750
(dp3751
g3296
I4500
sg3297
I33
sg3298
I0
sg3299
(lp3752
g3345
ag3303
ag3382
asg3304
I4
sg3305
I6
sg3306
g3307
sg3308
I10
sg3309
I17
sg3310
I3
sg3311
(lp3753
I34
aI0
aI86
asbag0
(g3292
g2
Ntp3754
Rp3755
(dp3756
g3296
I4500
sg3297
I69
sg3298
I0
sg3299
(lp3757
g3358
ag3431
ag3352
asg3304
I20
sg3305
I18
sg3306
g3359
sg3308
I4
sg3309
I13
sg3310
I3
sg3311
(lp3758
I86
aI66
aI35
asbag0
(g3292
g2
Ntp3759
Rp3760
(dp3761
g3296
I4560
sg3297
I71
sg3298
I0
sg3299
(lp3762
g3430
ag3302
ag3318
asg3304
I17
sg3305
I15
sg3306
g3307
sg3308
I4
sg3309
I15
sg3310
I2
sg3311
(lp3763
I49
aI58
aI56
asbag0
(g3292
g2
Ntp3764
Rp3765
(dp3766
g3296
I3100
sg3297
I21
sg3298
I0
sg3299
(lp3767
g3352
ag3303
ag3358
asg3304
I15
sg3305
I8
sg3306
g3359
sg3308
I16
sg3309
I19
sg3310
I3
sg3311
(lp3768
I92
aI54
aI27
asbag0
(g3292
g2
Ntp3769
Rp3770
(dp3771
g3296
I7500
sg3297
I50
sg3298
I0
sg3299
(lp3772
g3352
ag3382
ag3352
asg3304
I13
sg3305
I21
sg3306
g3359
sg3308
I20
sg3309
I13
sg3310
I4
sg3311
(lp3773
I74
aI30
aI58
asbag0
(g3292
g2
Ntp3774
Rp3775
(dp3776
g3296
I6000
sg3297
I35
sg3298
I0
sg3299
(lp3777
g3337
ag3303
ag3382
asg3304
I10
sg3305
I16
sg3306
g3359
sg3308
I11
sg3309
I9
sg3310
I4
sg3311
(lp3778
I67
aI76
aI23
asbag0
(g3292
g2
Ntp3779
Rp3780
(dp3781
g3296
I4500
sg3297
I88
sg3298
I0
sg3299
(lp3782
g3447
ag3358
ag3365
asg3304
I20
sg3305
I4
sg3306
g3359
sg3308
I3
sg3309
I21
sg3310
I3
sg3311
(lp3783
I64
aI20
aI8
asbag0
(g3292
g2
Ntp3784
Rp3785
(dp3786
g3296
I3000
sg3297
I34
sg3298
I0
sg3299
(lp3787
g3346
ag3302
ag3382
asg3304
I19
sg3305
I21
sg3306
g3307
sg3308
I15
sg3309
I19
sg3310
I1
sg3311
(lp3788
I21
aI6
aI66
asbag0
(g3292
g2
Ntp3789
Rp3790
(dp3791
g3296
I4560
sg3297
I56
sg3298
I0
sg3299
(lp3792
g3301
ag3319
ag3302
asg3304
I8
sg3305
I8
sg3306
g3307
sg3308
I11
sg3309
I21
sg3310
I2
sg3311
(lp3793
I79
aI13
aI76
asbag0
(g3292
g2
Ntp3794
Rp3795
(dp3796
g3296
I0
sg3297
I18
sg3298
I0
sg3299
(lp3797
g3338
ag3303
ag3345
asg3304
I5
sg3305
I3
sg3306
g3307
sg3308
I16
sg3309
I16
sg3310
I0
sg3311
(lp3798
I86
aI68
aI55
asbag0
(g3292
g2
Ntp3799
Rp3800
(dp3801
g3296
I0
sg3297
I3
sg3298
I0
sg3299
(lp3802
g3325
ag3409
ag3346
asg3304
I4
sg3305
I6
sg3306
g3359
sg3308
I17
sg3309
I20
sg3310
I0
sg3311
(lp3803
I31
aI13
aI3
asbag0
(g3292
g2
Ntp3804
Rp3805
(dp3806
g3296
I4560
sg3297
I69
sg3298
I0
sg3299
(lp3807
g3302
ag3302
ag3345
asg3304
I13
sg3305
I14
sg3306
g3307
sg3308
I4
sg3309
I13
sg3310
I2
sg3311
(lp3808
I6
aI69
aI13
asbag0
(g3292
g2
Ntp3809
Rp3810
(dp3811
g3296
I4560
sg3297
I56
sg3298
I0
sg3299
(lp3812
g3325
ag3331
ag3388
asg3304
I14
sg3305
I4
sg3306
g3359
sg3308
I4
sg3309
I13
sg3310
I2
sg3311
(lp3813
I87
aI63
aI45
asbag0
(g3292
g2
Ntp3814
Rp3815
(dp3816
g3296
I5600
sg3297
I37
sg3298
I0
sg3299
(lp3817
g3371
ag3382
ag3345
asg3304
I16
sg3305
I21
sg3306
g3307
sg3308
I13
sg3309
I21
sg3310
I2
sg3311
(lp3818
I19
aI34
aI52
asbag0
(g3292
g2
Ntp3819
Rp3820
(dp3821
g3296
I4800
sg3297
I32
sg3298
I0
sg3299
(lp3822
g3317
ag3388
ag3337
asg3304
I17
sg3305
I20
sg3306
g3307
sg3308
I13
sg3309
I11
sg3310
I2
sg3311
(lp3823
I27
aI0
aI50
asbag0
(g3292
g2
Ntp3824
Rp3825
(dp3826
g3296
I5700
sg3297
I54
sg3298
I0
sg3299
(lp3827
g3365
ag3431
ag3317
asg3304
I5
sg3305
I6
sg3306
g3359
sg3308
I3
sg3309
I21
sg3310
I4
sg3311
(lp3828
I79
aI45
aI23
asbasbsS'symulowana_firma'
p3829
g0
(cfirma
firma
p3830
g2
Ntp3831
Rp3832
(dp3833
S'trasy'
p3834
g0
(cfirma
trasy
p3835
g2
Ntp3836
Rp3837
(dp3838
g3834
(lp3839
g0
(cfirma
trasa
p3840
g2
Ntp3841
Rp3842
(dp3843
S'elementy'
p3844
(lp3845
g0
(cfirma
fabryka
p3846
g2
Ntp3847
Rp3848
(dp3849
S'koszt'
p3850
I0
sS'lokalizacja'
p3851
(lp3852
I15
aI8
asS'symbol'
p3853
csympy.core.symbol
Symbol
p3854
(S'f1'
p3855
tp3856
Rp3857
(dp3858
S'_assumptions'
p3859
g0
(csympy.core.assumptions
StdFactKB
p3860
c__builtin__
dict
p3861
(dp3862
S'commutative'
p3863
I01
stp3864
Rp3865
sbsS'efekt_skali'
p3866
I0
sg1057
g860
sS'nazwa'
p3867
g2197
sS'oblozenie'
p3868
I0
sbag0
(cfirma
magazyn
p3869
g2
Ntp3870
Rp3871
(dp3872
g3850
I0
sg3851
(lp3873
I19
aI21
asg3853
g3854
(S'm1'
p3874
tp3875
Rp3876
(dp3877
g3859
g0
(g3860
g3861
(dp3878
g3863
I01
stp3879
Rp3880
sbsg3866
I0
sg1057
g811
sg3867
g1462
sg3868
I0
sbag0
(cfirma
sklep
p3881
g2
Ntp3882
Rp3883
(dp3884
g3850
I0
sg3851
(lp3885
I19
aI19
asg1057
g94
sg3853
g3854
(S's1'
p3886
tp3887
Rp3888
(dp3889
g3859
g0
(g3860
g3861
(dp3890
g3863
I01
stp3891
Rp3892
sbsg3866
I0
sS'sklad'
p3893
(dp3894
sS'klienci_historycznie'
p3895
(lp3896
(lp3897
asS'klienci'
p3898
(lp3899
sS'przewidywana_sprzedaz'
p3900
I0
sg3867
g2153
sS'sprzedaz'
p3901
(dp3902
sg3868
I0
sbag0
(cfirma
sciezka
p3903
g2
Ntp3904
Rp3905
(dp3906
g3850
I0
sS'poczatek'
p3907
g3848
sg3853
g3854
(S'r1'
p3908
tp3909
Rp3910
(dp3911
g3859
g0
(g3860
g3861
(dp3912
g3863
I01
stp3913
Rp3914
sbsg3866
I0
sS'odleglosc'
p3915
I55
sS'koniec'
p3916
g3871
sg3868
I0
sbag0
(g3903
g2
Ntp3917
Rp3918
(dp3919
g3850
I0
sg3907
g3871
sg3853
g3854
(S'r7'
p3920
tp3921
Rp3922
(dp3923
g3859
g0
(g3860
g3861
(dp3924
g3863
I01
stp3925
Rp3926
sbsg3866
I0
sg3915
I38
sg3916
g3883
sg3868
I0
sbasg3853
g3854
(S't1'
p3927
tp3928
Rp3929
(dp3930
g3859
g0
(g3860
g3861
(dp3931
g3863
I01
stp3932
Rp3933
sbsg3868
I0
sS'udzial'
p3934
I0
sbag0
(g3840
g2
Ntp3935
Rp3936
(dp3937
g3844
(lp3938
g0
(g3846
g2
Ntp3939
Rp3940
(dp3941
g3850
I0
sg3851
(lp3942
I12
aI4
asg3853
g3854
(S'f2'
p3943
tp3944
Rp3945
(dp3946
g3859
g0
(g3860
g3861
(dp3947
g3863
I01
stp3948
Rp3949
sbsg3866
I0
sg1057
g521
sg3867
g2197
sg3868
I0
sbag3871
ag3883
ag0
(g3903
g2
Ntp3950
Rp3951
(dp3952
g3850
I0
sg3907
g3940
sg3853
g3854
(S'r2'
p3953
tp3954
Rp3955
(dp3956
g3859
g0
(g3860
g3861
(dp3957
g3863
I01
stp3958
Rp3959
sbsg3866
I0
sg3915
I41
sg3916
g3871
sg3868
I0
sbag3918
asg3853
g3854
(S't2'
p3960
tp3961
Rp3962
(dp3963
g3859
g0
(g3860
g3861
(dp3964
g3863
I01
stp3965
Rp3966
sbsg3868
I0
sg3934
I0
sbag0
(g3840
g2
Ntp3967
Rp3968
(dp3969
g3844
(lp3970
g3848
ag0
(g3869
g2
Ntp3971
Rp3972
(dp3973
g3850
I0
sg3851
(lp3974
I12
aI11
asg3853
g3854
(S'm2'
p3975
tp3976
Rp3977
(dp3978
g3859
g0
(g3860
g3861
(dp3979
g3863
I01
stp3980
Rp3981
sbsg3866
I0
sg1057
g200
sg3867
g1462
sg3868
I0
sbag3883
ag0
(g3903
g2
Ntp3982
Rp3983
(dp3984
g3850
I0
sg3907
g3848
sg3853
g3854
(S'r3'
p3985
tp3986
Rp3987
(dp3988
g3859
g0
(g3860
g3861
(dp3989
g3863
I01
stp3990
Rp3991
sbsg3866
I0
sg3915
I135
sg3916
g3972
sg3868
I0
sbag0
(g3903
g2
Ntp3992
Rp3993
(dp3994
g3850
I0
sg3907
g3972
sg3853
g3854
(S'r8'
p3995
tp3996
Rp3997
(dp3998
g3859
g0
(g3860
g3861
(dp3999
g3863
I01
stp4000
Rp4001
sbsg3866
I0
sg3915
I76
sg3916
g3883
sg3868
I0
sbasg3853
g3854
(S't3'
p4002
tp4003
Rp4004
(dp4005
g3859
g0
(g3860
g3861
(dp4006
g3863
I01
stp4007
Rp4008
sbsg3868
I0
sg3934
I0
sbag0
(g3840
g2
Ntp4009
Rp4010
(dp4011
g3844
(lp4012
g3940
ag3972
ag3883
ag0
(g3903
g2
Ntp4013
Rp4014
(dp4015
g3850
I0
sg3907
g3940
sg3853
g3854
(S'r4'
p4016
tp4017
Rp4018
(dp4019
g3859
g0
(g3860
g3861
(dp4020
g3863
I01
stp4021
Rp4022
sbsg3866
I0
sg3915
I135
sg3916
g3972
sg3868
I0
sbag3993
asg3853
g3854
(S't4'
p4023
tp4024
Rp4025
(dp4026
g3859
g0
(g3860
g3861
(dp4027
g3863
I01
stp4028
Rp4029
sbsg3868
I0
sg3934
I0
sbag0
(g3840
g2
Ntp4030
Rp4031
(dp4032
g3844
(lp4033
g3848
ag0
(g3869
g2
Ntp4034
Rp4035
(dp4036
g3850
I0
sg3851
(lp4037
I4
aI3
asg3853
g3854
(S'm3'
p4038
tp4039
Rp4040
(dp4041
g3859
g0
(g3860
g3861
(dp4042
g3863
I01
stp4043
Rp4044
sbsg3866
I0
sg1057
g1032
sg3867
g1462
sg3868
I0
sbag3883
ag0
(g3903
g2
Ntp4045
Rp4046
(dp4047
g3850
I0
sg3907
g3848
sg3853
g3854
(S'r5'
p4048
tp4049
Rp4050
(dp4051
g3859
g0
(g3860
g3861
(dp4052
g3863
I01
stp4053
Rp4054
sbsg3866
I0
sg3915
I111
sg3916
g4035
sg3868
I0
sbag0
(g3903
g2
Ntp4055
Rp4056
(dp4057
g3850
I0
sg3907
g4035
sg3853
g3854
(S'r9'
p4058
tp4059
Rp4060
(dp4061
g3859
g0
(g3860
g3861
(dp4062
g3863
I01
stp4063
Rp4064
sbsg3866
I0
sg3915
I50
sg3916
g3883
sg3868
I0
sbasg3853
g3854
(S't5'
p4065
tp4066
Rp4067
(dp4068
g3859
g0
(g3860
g3861
(dp4069
g3863
I01
stp4070
Rp4071
sbsg3868
I0
sg3934
I0
sbag0
(g3840
g2
Ntp4072
Rp4073
(dp4074
g3844
(lp4075
g3940
ag4035
ag3883
ag0
(g3903
g2
Ntp4076
Rp4077
(dp4078
g3850
I0
sg3907
g3940
sg3853
g3854
(S'r6'
p4079
tp4080
Rp4081
(dp4082
g3859
g0
(g3860
g3861
(dp4083
g3863
I01
stp4084
Rp4085
sbsg3866
I0
sg3915
I111
sg3916
g4035
sg3868
I0
sbag4056
asg3853
g3854
(S't6'
p4086
tp4087
Rp4088
(dp4089
g3859
g0
(g3860
g3861
(dp4090
g3863
I01
stp4091
Rp4092
sbsg3868
I0
sg3934
I0
sbag0
(g3840
g2
Ntp4093
Rp4094
(dp4095
g3844
(lp4096
g3848
ag3871
ag0
(g3881
g2
Ntp4097
Rp4098
(dp4099
g3850
I0
sg3851
(lp4100
I17
aI18
asg1057
g227
sg3853
g3854
(S's2'
p4101
tp4102
Rp4103
(dp4104
g3859
g0
(g3860
g3861
(dp4105
g3863
I01
stp4106
Rp4107
sbsg3866
I0
sg3893
(dp4108
sg3895
(lp4109
(lp4110
asg3898
(lp4111
sg3900
I0
sg3867
g2153
sg3901
(dp4112
sg3868
I0
sbag3905
ag0
(g3903
g2
Ntp4113
Rp4114
(dp4115
g3850
I0
sg3907
g3871
sg3853
g3854
(S'r10'
p4116
tp4117
Rp4118
(dp4119
g3859
g0
(g3860
g3861
(dp4120
g3863
I01
stp4121
Rp4122
sbsg3866
I0
sg3915
I39
sg3916
g4098
sg3868
I0
sbasg3853
g3854
(S't7'
p4123
tp4124
Rp4125
(dp4126
g3859
g0
(g3860
g3861
(dp4127
g3863
I01
stp4128
Rp4129
sbsg3868
I0
sg3934
I0
sbag0
(g3840
g2
Ntp4130
Rp4131
(dp4132
g3844
(lp4133
g3940
ag3871
ag4098
ag3951
ag4114
asg3853
g3854
(S't8'
p4134
tp4135
Rp4136
(dp4137
g3859
g0
(g3860
g3861
(dp4138
g3863
I01
stp4139
Rp4140
sbsg3868
I0
sg3934
I0
sbag0
(g3840
g2
Ntp4141
Rp4142
(dp4143
g3844
(lp4144
g3848
ag3972
ag4098
ag3983
ag0
(g3903
g2
Ntp4145
Rp4146
(dp4147
g3850
I0
sg3907
g3972
sg3853
g3854
(S'r11'
p4148
tp4149
Rp4150
(dp4151
g3859
g0
(g3860
g3861
(dp4152
g3863
I01
stp4153
Rp4154
sbsg3866
I0
sg3915
I75
sg3916
g4098
sg3868
I0
sbasg3853
g3854
(S't9'
p4155
tp4156
Rp4157
(dp4158
g3859
g0
(g3860
g3861
(dp4159
g3863
I01
stp4160
Rp4161
sbsg3868
I0
sg3934
I0
sbag0
(g3840
g2
Ntp4162
Rp4163
(dp4164
g3844
(lp4165
g3940
ag3972
ag4098
ag4014
ag4146
asg3853
g3854
(S't10'
p4166
tp4167
Rp4168
(dp4169
g3859
g0
(g3860
g3861
(dp4170
g3863
I01
stp4171
Rp4172
sbsg3868
I0
sg3934
I0
sbag0
(g3840
g2
Ntp4173
Rp4174
(dp4175
g3844
(lp4176
g3848
ag4035
ag4098
ag4046
ag0
(g3903
g2
Ntp4177
Rp4178
(dp4179
g3850
I0
sg3907
g4035
sg3853
g3854
(S'r12'
p4180
tp4181
Rp4182
(dp4183
g3859
g0
(g3860
g3861
(dp4184
g3863
I01
stp4185
Rp4186
sbsg3866
I0
sg3915
I49
sg3916
g4098
sg3868
I0
sbasg3853
g3854
(S't11'
p4187
tp4188
Rp4189
(dp4190
g3859
g0
(g3860
g3861
(dp4191
g3863
I01
stp4192
Rp4193
sbsg3868
I0
sg3934
I0
sbag0
(g3840
g2
Ntp4194
Rp4195
(dp4196
g3844
(lp4197
g3940
ag4035
ag4098
ag4077
ag4178
asg3853
g3854
(S't12'
p4198
tp4199
Rp4200
(dp4201
g3859
g0
(g3860
g3861
(dp4202
g3863
I01
stp4203
Rp4204
sbsg3868
I0
sg3934
I0
sbag0
(g3840
g2
Ntp4205
Rp4206
(dp4207
g3844
(lp4208
g3848
ag3871
ag0
(g3881
g2
Ntp4209
Rp4210
(dp4211
g3850
I0
sg3851
(lp4212
I11
aI20
asg1057
g524
sg3853
g3854
(S's3'
p4213
tp4214
Rp4215
(dp4216
g3859
g0
(g3860
g3861
(dp4217
g3863
I01
stp4218
Rp4219
sbsg3866
I0
sg3893
(dp4220
sg3895
(lp4221
(lp4222
asg3898
(lp4223
sg3900
I0
sg3867
g2153
sg3901
(dp4224
sg3868
I0
sbag3905
ag0
(g3903
g2
Ntp4225
Rp4226
(dp4227
g3850
I0
sg3907
g3871
sg3853
g3854
(S'r13'
p4228
tp4229
Rp4230
(dp4231
g3859
g0
(g3860
g3861
(dp4232
g3863
I01
stp4233
Rp4234
sbsg3866
I0
sg3915
I18
sg3916
g4210
sg3868
I0
sbasg3853
g3854
(S't13'
p4235
tp4236
Rp4237
(dp4238
g3859
g0
(g3860
g3861
(dp4239
g3863
I01
stp4240
Rp4241
sbsg3868
I0
sg3934
I0
sbag0
(g3840
g2
Ntp4242
Rp4243
(dp4244
g3844
(lp4245
g3940
ag3871
ag4210
ag3951
ag4226
asg3853
g3854
(S't14'
p4246
tp4247
Rp4248
(dp4249
g3859
g0
(g3860
g3861
(dp4250
g3863
I01
stp4251
Rp4252
sbsg3868
I0
sg3934
I0
sbag0
(g3840
g2
Ntp4253
Rp4254
(dp4255
g3844
(lp4256
g3848
ag3972
ag4210
ag3983
ag0
(g3903
g2
Ntp4257
Rp4258
(dp4259
g3850
I0
sg3907
g3972
sg3853
g3854
(S'r14'
p4260
tp4261
Rp4262
(dp4263
g3859
g0
(g3860
g3861
(dp4264
g3863
I01
stp4265
Rp4266
sbsg3866
I0
sg3915
I95
sg3916
g4210
sg3868
I0
sbasg3853
g3854
(S't15'
p4267
tp4268
Rp4269
(dp4270
g3859
g0
(g3860
g3861
(dp4271
g3863
I01
stp4272
Rp4273
sbsg3868
I0
sg3934
I0
sbag0
(g3840
g2
Ntp4274
Rp4275
(dp4276
g3844
(lp4277
g3940
ag3972
ag4210
ag4014
ag4258
asg3853
g3854
(S't16'
p4278
tp4279
Rp4280
(dp4281
g3859
g0
(g3860
g3861
(dp4282
g3863
I01
stp4283
Rp4284
sbsg3868
I0
sg3934
I0
sbag0
(g3840
g2
Ntp4285
Rp4286
(dp4287
g3844
(lp4288
g3848
ag4035
ag4210
ag4046
ag0
(g3903
g2
Ntp4289
Rp4290
(dp4291
g3850
I0
sg3907
g4035
sg3853
g3854
(S'r15'
p4292
tp4293
Rp4294
(dp4295
g3859
g0
(g3860
g3861
(dp4296
g3863
I01
stp4297
Rp4298
sbsg3866
I0
sg3915
I69
sg3916
g4210
sg3868
I0
sbasg3853
g3854
(S't17'
p4299
tp4300
Rp4301
(dp4302
g3859
g0
(g3860
g3861
(dp4303
g3863
I01
stp4304
Rp4305
sbsg3868
I0
sg3934
I0
sbag0
(g3840
g2
Ntp4306
Rp4307
(dp4308
g3844
(lp4309
g3940
ag4035
ag4210
ag4077
ag4290
asg3853
g3854
(S't18'
p4310
tp4311
Rp4312
(dp4313
g3859
g0
(g3860
g3861
(dp4314
g3863
I01
stp4315
Rp4316
sbsg3868
I0
sg3934
I0
sbag0
(g3840
g2
Ntp4317
Rp4318
(dp4319
g3844
(lp4320
g3848
ag3871
ag0
(g3881
g2
Ntp4321
Rp4322
(dp4323
g3850
I0
sg3851
(lp4324
I11
aI17
asg1057
g996
sg3853
g3854
(S's4'
p4325
tp4326
Rp4327
(dp4328
g3859
g0
(g3860
g3861
(dp4329
g3863
I01
stp4330
Rp4331
sbsg3866
I0
sg3893
(dp4332
sg3895
(lp4333
(lp4334
asg3898
(lp4335
sg3900
I0
sg3867
g2153
sg3901
(dp4336
sg3868
I0
sbag3905
ag0
(g3903
g2
Ntp4337
Rp4338
(dp4339
g3850
I0
sg3907
g3871
sg3853
g3854
(S'r16'
p4340
tp4341
Rp4342
(dp4343
g3859
g0
(g3860
g3861
(dp4344
g3863
I01
stp4345
Rp4346
sbsg3866
I0
sg3915
I21
sg3916
g4322
sg3868
I0
sbasg3853
g3854
(S't19'
p4347
tp4348
Rp4349
(dp4350
g3859
g0
(g3860
g3861
(dp4351
g3863
I01
stp4352
Rp4353
sbsg3868
I0
sg3934
I0
sbag0
(g3840
g2
Ntp4354
Rp4355
(dp4356
g3844
(lp4357
g3940
ag3871
ag4322
ag3951
ag4338
asg3853
g3854
(S't20'
p4358
tp4359
Rp4360
(dp4361
g3859
g0
(g3860
g3861
(dp4362
g3863
I01
stp4363
Rp4364
sbsg3868
I0
sg3934
I0
sbag0
(g3840
g2
Ntp4365
Rp4366
(dp4367
g3844
(lp4368
g3848
ag3972
ag4322
ag3983
ag0
(g3903
g2
Ntp4369
Rp4370
(dp4371
g3850
I0
sg3907
g3972
sg3853
g3854
(S'r17'
p4372
tp4373
Rp4374
(dp4375
g3859
g0
(g3860
g3861
(dp4376
g3863
I01
stp4377
Rp4378
sbsg3866
I0
sg3915
I98
sg3916
g4322
sg3868
I0
sbasg3853
g3854
(S't21'
p4379
tp4380
Rp4381
(dp4382
g3859
g0
(g3860
g3861
(dp4383
g3863
I01
stp4384
Rp4385
sbsg3868
I0
sg3934
I0
sbag0
(g3840
g2
Ntp4386
Rp4387
(dp4388
g3844
(lp4389
g3940
ag3972
ag4322
ag4014
ag4370
asg3853
g3854
(S't22'
p4390
tp4391
Rp4392
(dp4393
g3859
g0
(g3860
g3861
(dp4394
g3863
I01
stp4395
Rp4396
sbsg3868
I0
sg3934
I0
sbag0
(g3840
g2
Ntp4397
Rp4398
(dp4399
g3844
(lp4400
g3848
ag4035
ag4322
ag4046
ag0
(g3903
g2
Ntp4401
Rp4402
(dp4403
g3850
I0
sg3907
g4035
sg3853
g3854
(S'r18'
p4404
tp4405
Rp4406
(dp4407
g3859
g0
(g3860
g3861
(dp4408
g3863
I01
stp4409
Rp4410
sbsg3866
I0
sg3915
I72
sg3916
g4322
sg3868
I0
sbasg3853
g3854
(S't23'
p4411
tp4412
Rp4413
(dp4414
g3859
g0
(g3860
g3861
(dp4415
g3863
I01
stp4416
Rp4417
sbsg3868
I0
sg3934
I0
sbag0
(g3840
g2
Ntp4418
Rp4419
(dp4420
g3844
(lp4421
g3940
ag4035
ag4322
ag4077
ag4402
asg3853
g3854
(S't24'
p4422
tp4423
Rp4424
(dp4425
g3859
g0
(g3860
g3861
(dp4426
g3863
I01
stp4427
Rp4428
sbsg3868
I0
sg3934
I0
sbag0
(g3840
g2
Ntp4429
Rp4430
(dp4431
g3844
(lp4432
g3848
ag3871
ag0
(g3881
g2
Ntp4433
Rp4434
(dp4435
g3850
I0
sg3851
(lp4436
I17
aI9
asg1057
g999
sg3853
g3854
(S's5'
p4437
tp4438
Rp4439
(dp4440
g3859
g0
(g3860
g3861
(dp4441
g3863
I01
stp4442
Rp4443
sbsg3866
I0
sg3893
(dp4444
sg3895
(lp4445
(lp4446
asg3898
(lp4447
sg3900
I0
sg3867
g2153
sg3901
(dp4448
sg3868
I0
sbag3905
ag0
(g3903
g2
Ntp4449
Rp4450
(dp4451
g3850
I0
sg3907
g3871
sg3853
g3854
(S'r19'
p4452
tp4453
Rp4454
(dp4455
g3859
g0
(g3860
g3861
(dp4456
g3863
I01
stp4457
Rp4458
sbsg3866
I0
sg3915
I56
sg3916
g4434
sg3868
I0
sbasg3853
g3854
(S't25'
p4459
tp4460
Rp4461
(dp4462
g3859
g0
(g3860
g3861
(dp4463
g3863
I01
stp4464
Rp4465
sbsg3868
I0
sg3934
I0
sbag0
(g3840
g2
Ntp4466
Rp4467
(dp4468
g3844
(lp4469
g3940
ag3871
ag4434
ag3951
ag4450
asg3853
g3854
(S't26'
p4470
tp4471
Rp4472
(dp4473
g3859
g0
(g3860
g3861
(dp4474
g3863
I01
stp4475
Rp4476
sbsg3868
I0
sg3934
I0
sbag0
(g3840
g2
Ntp4477
Rp4478
(dp4479
g3844
(lp4480
g3848
ag3972
ag4434
ag3983
ag0
(g3903
g2
Ntp4481
Rp4482
(dp4483
g3850
I0
sg3907
g3972
sg3853
g3854
(S'r20'
p4484
tp4485
Rp4486
(dp4487
g3859
g0
(g3860
g3861
(dp4488
g3863
I01
stp4489
Rp4490
sbsg3866
I0
sg3915
I62
sg3916
g4434
sg3868
I0
sbasg3853
g3854
(S't27'
p4491
tp4492
Rp4493
(dp4494
g3859
g0
(g3860
g3861
(dp4495
g3863
I01
stp4496
Rp4497
sbsg3868
I0
sg3934
I0
sbag0
(g3840
g2
Ntp4498
Rp4499
(dp4500
g3844
(lp4501
g3940
ag3972
ag4434
ag4014
ag4482
asg3853
g3854
(S't28'
p4502
tp4503
Rp4504
(dp4505
g3859
g0
(g3860
g3861
(dp4506
g3863
I01
stp4507
Rp4508
sbsg3868
I0
sg3934
I0
sbag0
(g3840
g2
Ntp4509
Rp4510
(dp4511
g3844
(lp4512
g3848
ag4035
ag4434
ag4046
ag0
(g3903
g2
Ntp4513
Rp4514
(dp4515
g3850
I0
sg3907
g4035
sg3853
g3854
(S'r21'
p4516
tp4517
Rp4518
(dp4519
g3859
g0
(g3860
g3861
(dp4520
g3863
I01
stp4521
Rp4522
sbsg3866
I0
sg3915
I36
sg3916
g4434
sg3868
I0
sbasg3853
g3854
(S't29'
p4523
tp4524
Rp4525
(dp4526
g3859
g0
(g3860
g3861
(dp4527
g3863
I01
stp4528
Rp4529
sbsg3868
I0
sg3934
I0
sbag0
(g3840
g2
Ntp4530
Rp4531
(dp4532
g3844
(lp4533
g3940
ag4035
ag4434
ag4077
ag4514
asg3853
g3854
(S't30'
p4534
tp4535
Rp4536
(dp4537
g3859
g0
(g3860
g3861
(dp4538
g3863
I01
stp4539
Rp4540
sbsg3868
I0
sg3934
I0
sbag0
(g3840
g2
Ntp4541
Rp4542
(dp4543
g3844
(lp4544
g3848
ag3871
ag0
(g3881
g2
Ntp4545
Rp4546
(dp4547
g3850
I0
sg3851
(lp4548
I12
aI6
asg1057
g124
sg3853
g3854
(S's6'
p4549
tp4550
Rp4551
(dp4552
g3859
g0
(g3860
g3861
(dp4553
g3863
I01
stp4554
Rp4555
sbsg3866
I0
sg3893
(dp4556
sg3895
(lp4557
(lp4558
asg3898
(lp4559
sg3900
I0
sg3867
g2153
sg3901
(dp4560
sg3868
I0
sbag3905
ag0
(g3903
g2
Ntp4561
Rp4562
(dp4563
g3850
I0
sg3907
g3871
sg3853
g3854
(S'r22'
p4564
tp4565
Rp4566
(dp4567
g3859
g0
(g3860
g3861
(dp4568
g3863
I01
stp4569
Rp4570
sbsg3866
I0
sg3915
I124
sg3916
g4546
sg3868
I0
sbasg3853
g3854
(S't31'
p4571
tp4572
Rp4573
(dp4574
g3859
g0
(g3860
g3861
(dp4575
g3863
I01
stp4576
Rp4577
sbsg3868
I0
sg3934
I0
sbag0
(g3840
g2
Ntp4578
Rp4579
(dp4580
g3844
(lp4581
g3940
ag3871
ag4546
ag3951
ag4562
asg3853
g3854
(S't32'
p4582
tp4583
Rp4584
(dp4585
g3859
g0
(g3860
g3861
(dp4586
g3863
I01
stp4587
Rp4588
sbsg3868
I0
sg3934
I0
sbag0
(g3840
g2
Ntp4589
Rp4590
(dp4591
g3844
(lp4592
g3848
ag3972
ag4546
ag3983
ag0
(g3903
g2
Ntp4593
Rp4594
(dp4595
g3850
I0
sg3907
g3972
sg3853
g3854
(S'r23'
p4596
tp4597
Rp4598
(dp4599
g3859
g0
(g3860
g3861
(dp4600
g3863
I01
stp4601
Rp4602
sbsg3866
I0
sg3915
I8
sg3916
g4546
sg3868
I0
sbasg3853
g3854
(S't33'
p4603
tp4604
Rp4605
(dp4606
g3859
g0
(g3860
g3861
(dp4607
g3863
I01
stp4608
Rp4609
sbsg3868
I0
sg3934
I0
sbag0
(g3840
g2
Ntp4610
Rp4611
(dp4612
g3844
(lp4613
g3940
ag3972
ag4546
ag4014
ag4594
asg3853
g3854
(S't34'
p4614
tp4615
Rp4616
(dp4617
g3859
g0
(g3860
g3861
(dp4618
g3863
I01
stp4619
Rp4620
sbsg3868
I0
sg3934
I0
sbag0
(g3840
g2
Ntp4621
Rp4622
(dp4623
g3844
(lp4624
g3848
ag4035
ag4546
ag4046
ag0
(g3903
g2
Ntp4625
Rp4626
(dp4627
g3850
I0
sg3907
g4035
sg3853
g3854
(S'r24'
p4628
tp4629
Rp4630
(dp4631
g3859
g0
(g3860
g3861
(dp4632
g3863
I01
stp4633
Rp4634
sbsg3866
I0
sg3915
I128
sg3916
g4546
sg3868
I0
sbasg3853
g3854
(S't35'
p4635
tp4636
Rp4637
(dp4638
g3859
g0
(g3860
g3861
(dp4639
g3863
I01
stp4640
Rp4641
sbsg3868
I0
sg3934
I0
sbag0
(g3840
g2
Ntp4642
Rp4643
(dp4644
g3844
(lp4645
g3940
ag4035
ag4546
ag4077
ag4626
asg3853
g3854
(S't36'
p4646
tp4647
Rp4648
(dp4649
g3859
g0
(g3860
g3861
(dp4650
g3863
I01
stp4651
Rp4652
sbsg3868
I0
sg3934
I0
sbag0
(g3840
g2
Ntp4653
Rp4654
(dp4655
g3844
(lp4656
g3848
ag3871
ag0
(g3881
g2
Ntp4657
Rp4658
(dp4659
g3850
I0
sg3851
(lp4660
I20
aI19
asg1057
g356
sg3853
g3854
(S's7'
p4661
tp4662
Rp4663
(dp4664
g3859
g0
(g3860
g3861
(dp4665
g3863
I01
stp4666
Rp4667
sbsg3866
I0
sg3893
(dp4668
sg3895
(lp4669
(lp4670
asg3898
(lp4671
sg3900
I0
sg3867
g2153
sg3901
(dp4672
sg3868
I0
sbag3905
ag0
(g3903
g2
Ntp4673
Rp4674
(dp4675
g3850
I0
sg3907
g3871
sg3853
g3854
(S'r25'
p4676
tp4677
Rp4678
(dp4679
g3859
g0
(g3860
g3861
(dp4680
g3863
I01
stp4681
Rp4682
sbsg3866
I0
sg3915
I2
sg3916
g4658
sg3868
I0
sbasg3853
g3854
(S't37'
p4683
tp4684
Rp4685
(dp4686
g3859
g0
(g3860
g3861
(dp4687
g3863
I01
stp4688
Rp4689
sbsg3868
I0
sg3934
I0
sbag0
(g3840
g2
Ntp4690
Rp4691
(dp4692
g3844
(lp4693
g3940
ag3871
ag4658
ag3951
ag4674
asg3853
g3854
(S't38'
p4694
tp4695
Rp4696
(dp4697
g3859
g0
(g3860
g3861
(dp4698
g3863
I01
stp4699
Rp4700
sbsg3868
I0
sg3934
I0
sbag0
(g3840
g2
Ntp4701
Rp4702
(dp4703
g3844
(lp4704
g3848
ag3972
ag4658
ag3983
ag0
(g3903
g2
Ntp4705
Rp4706
(dp4707
g3850
I0
sg3907
g3972
sg3853
g3854
(S'r26'
p4708
tp4709
Rp4710
(dp4711
g3859
g0
(g3860
g3861
(dp4712
g3863
I01
stp4713
Rp4714
sbsg3866
I0
sg3915
I79
sg3916
g4658
sg3868
I0
sbasg3853
g3854
(S't39'
p4715
tp4716
Rp4717
(dp4718
g3859
g0
(g3860
g3861
(dp4719
g3863
I01
stp4720
Rp4721
sbsg3868
I0
sg3934
I0
sbag0
(g3840
g2
Ntp4722
Rp4723
(dp4724
g3844
(lp4725
g3940
ag3972
ag4658
ag4014
ag4706
asg3853
g3854
(S't40'
p4726
tp4727
Rp4728
(dp4729
g3859
g0
(g3860
g3861
(dp4730
g3863
I01
stp4731
Rp4732
sbsg3868
I0
sg3934
I0
sbag0
(g3840
g2
Ntp4733
Rp4734
(dp4735
g3844
(lp4736
g3848
ag4035
ag4658
ag4046
ag0
(g3903
g2
Ntp4737
Rp4738
(dp4739
g3850
I0
sg3907
g4035
sg3853
g3854
(S'r27'
p4740
tp4741
Rp4742
(dp4743
g3859
g0
(g3860
g3861
(dp4744
g3863
I01
stp4745
Rp4746
sbsg3866
I0
sg3915
I53
sg3916
g4658
sg3868
I0
sbasg3853
g3854
(S't41'
p4747
tp4748
Rp4749
(dp4750
g3859
g0
(g3860
g3861
(dp4751
g3863
I01
stp4752
Rp4753
sbsg3868
I0
sg3934
I0
sbag0
(g3840
g2
Ntp4754
Rp4755
(dp4756
g3844
(lp4757
g3940
ag4035
ag4658
ag4077
ag4738
asg3853
g3854
(S't42'
p4758
tp4759
Rp4760
(dp4761
g3859
g0
(g3860
g3861
(dp4762
g3863
I01
stp4763
Rp4764
sbsg3868
I0
sg3934
I0
sbasS'drogi'
p4765
(lp4766
g3905
ag3951
ag3983
ag4014
ag4046
ag4077
ag3918
ag3993
ag4056
ag4114
ag4146
ag4178
ag4226
ag4258
ag4290
ag4338
ag4370
ag4402
ag4450
ag4482
ag4514
ag4562
ag4594
ag4626
ag4674
ag4706
ag4738
asbsS'sklepy'
p4767
(lp4768
g3883
ag4098
ag4210
ag4322
ag4434
ag4546
ag4658
asS'wyniki'
p4769
(lp4770
sS'cena'
p4771
I4
sS'produkt'
p4772
g0
(cfirma
produkt
p4773
g2
Ntp4774
Rp4775
(dp4776
g3867
S'Symulowane'
p4777
sS'macierz_cech'
p4778
(lp4779
g4777
aI5
aI2
aI2
aI1
aI0
aI1
aI0
aI5
asbsS'magazyny'
p4780
(lp4781
g3871
ag3972
ag4035
asS'fabryki'
p4782
(lp4783
g3848
ag3940
asbsS'tura'
p4784
I0
sS'produkty_na_rynku'
p4785
(lp4786
g4779
a(lp4787
S'Gornik'
p4788
aI3
aI2
aI5
aI0
aI1
aI1
aI0
aI3
aa(lp4789
S'Pszczeniczne'
p4790
aI5
aI1
aI5
aI1
aI0
aI1
aI0
aI4
aa(lp4791
S'Lebskie'
p4792
aI3
aI2
aI1
aI0
aI0
aI1
aI0
aI4
aa(lp4793
S'Opolskie'
p4794
aI5
aI5
aI4
aI0
aI0
aI0
aI1
aI4
aa(lp4795
S'Pyszne'
p4796
aI1
aI1
aI4
aI0
aI1
aI0
aI1
aI1
aa(lp4797
S'Babskie'
p4798
aI2
aI4
aI3
aI1
aI0
aI0
aI1
aI2
aasb.