ccopy_reg
_reconstructor
p0
(c__main__
rynek
p1
c__builtin__
object
p2
Ntp3
Rp4
(dp5
S'swiat'
p6
g0
(cgenerowanie_swiata
swiat
p7
g2
Ntp8
Rp9
(dp10
S'nodes'
p11
(dp12
(I7
I3
tp13
(lp14
(I7
I4
tp15
as(I6
I9
tp16
(lp17
(I5
I9
tp18
as(I8
I4
tp19
(lp20
(lp21
I9
aI4
aa(lp22
I7
aI4
aas(I19
I19
tp23
(lp24
(I18
I19
tp25
as(I10
I17
tp26
(lp27
(lp28
I11
aI17
aa(lp29
I9
aI17
aas(I16
I6
tp30
(lp31
(I15
I6
tp32
as(I7
I12
tp33
(lp34
(lp35
I8
aI12
aa(lp36
I7
aI13
aa(lp37
I7
aI11
aas(I14
I4
tp38
(lp39
(lp40
I15
aI4
aa(lp41
I13
aI4
aas(I13
I4
tp42
(lp43
(lp44
I14
aI4
aa(lp45
I12
aI4
aas(I12
I12
tp46
(lp47
(I11
I12
tp48
as(I14
I17
tp49
(lp50
(I14
I18
tp51
as(I17
I20
tp52
(lp53
(I18
I20
tp54
as(I13
I17
tp55
(lp56
(lp57
I12
aI17
aa(lp58
I13
aI18
aa(lp59
I13
aI16
aas(I2
I22
tp60
(lp61
(lp62
I3
aI22
aa(lp63
I2
aI21
aas(I18
I19
tp64
(lp65
(lp66
I18
aI20
aa(lp67
I18
aI18
aas(I3
I7
tp68
(lp69
(I4
I7
tp70
as(I2
I5
tp71
(lp72
(lp73
I2
aI6
aa(lp74
I2
aI4
aas(I8
I5
tp75
(lp76
(I8
I4
tp77
as(I15
I14
tp78
(lp79
(lp80
I15
aI15
aa(lp81
I15
aI13
aas(I5
I8
tp82
(lp83
(I5
I7
tp84
as(I11
I11
tp85
(lp86
(I11
I12
tp87
as(I10
I8
tp88
(lp89
(I10
I7
tp90
as(I6
I7
tp91
(lp92
(lp93
I7
aI7
aa(lp94
I5
aI7
aa(lp95
I6
aI6
aas(I5
I5
tp96
(lp97
(I6
I5
tp98
as(I4
I19
tp99
(lp100
(lp101
I4
aI20
aa(lp102
I4
aI18
aas(I11
I5
tp103
(lp104
(I11
I4
tp105
as(I10
I7
tp106
(lp107
(lp108
I11
aI7
aa(lp109
I9
aI7
aas(I9
I21
tp110
(lp111
(lp112
I10
aI21
aa(lp113
I8
aI21
aas(I7
I6
tp114
(lp115
(I6
I6
tp116
as(I6
I10
tp117
(lp118
(I7
I10
tp119
as(I5
I18
tp120
(lp121
(I5
I17
tp122
as(I12
I6
tp123
(lp124
(I12
I7
tp125
as(I11
I22
tp126
(lp127
(I11
I21
tp128
as(I10
I18
tp129
(lp130
(I10
I19
tp131
as(I7
I19
tp132
(lp133
(lp134
I7
aI20
aa(lp135
I7
aI18
aas(I13
I7
tp136
(lp137
(lp138
I12
aI7
aa(lp139
I13
aI8
aa(lp140
I13
aI6
aas(I12
I17
tp141
(lp142
(lp143
I13
aI17
aa(lp144
I11
aI17
aas(I15
I4
tp145
(lp146
(lp147
I14
aI4
aa(lp148
I15
aI5
aas(I13
I20
tp149
(lp150
(I13
I21
tp151
as(I18
I20
tp152
(lp153
(lp154
I18
aI21
aa(lp155
I18
aI19
aas(I8
I15
tp156
(lp157
(I7
I15
tp158
as(I4
I10
tp159
(lp160
(I4
I9
tp161
as(I3
I2
tp162
(lp163
(lp164
I4
aI2
aa(lp165
I2
aI2
aas(I2
I6
tp166
(lp167
(lp168
I2
aI7
aa(lp169
I2
aI5
aas(I7
I10
tp170
(lp171
(lp172
I7
aI11
aa(lp173
I7
aI9
aas(I5
I11
tp174
(lp175
(lp176
I5
aI12
aa(lp177
I5
aI10
aas(I4
I5
tp178
(lp179
(lp180
I4
aI6
aa(lp181
I4
aI4
aas(I10
I13
tp182
(lp183
(I10
I12
tp184
as(I9
I3
tp185
(lp186
(I9
I4
tp187
as(I8
I21
tp188
(lp189
(lp190
I9
aI21
aa(lp191
I7
aI21
aas(I4
I16
tp192
(lp193
(I4
I17
tp194
as(I9
I16
tp195
(lp196
(I9
I17
tp197
as(I7
I5
tp198
(lp199
(I6
I5
tp200
as(I14
I15
tp201
(lp202
(I13
I15
tp203
as(I5
I21
tp204
(lp205
(I4
I21
tp206
as(I12
I11
tp207
(lp208
(I13
I11
tp209
as(I11
I21
tp210
(lp211
(lp212
I12
aI21
aa(lp213
I10
aI21
aas(I7
I22
tp214
(lp215
(I7
I21
tp216
as(I13
I10
tp217
(lp218
(lp219
I13
aI11
aa(lp220
I13
aI9
aas(I12
I22
tp221
(lp222
(I12
I21
tp223
as(I2
I17
tp224
(lp225
(lp226
I2
aI18
aa(lp227
I2
aI16
aas(I6
I8
tp228
(lp229
(I7
I8
tp230
as(I17
I18
tp231
(lp232
(I16
I18
tp233
as(I10
I22
tp234
(lp235
(I10
I21
tp236
as(I8
I12
tp237
(lp238
(lp239
I9
aI12
aa(lp240
I7
aI12
aas(I4
I15
tp241
(lp242
(lp243
I5
aI15
aa(lp244
I3
aI15
aas(I15
I15
tp245
(lp246
(lp247
I15
aI16
aa(lp248
I15
aI14
aas(I5
I14
tp249
(lp250
(lp251
I5
aI15
aa(lp252
I5
aI13
aas(I14
I18
tp253
(lp254
(lp255
I15
aI18
aa(lp256
I13
aI18
aas(I3
I18
tp257
(lp258
(I2
I18
tp259
as(I8
I18
tp260
(lp261
(I8
I17
tp262
as(I6
I13
tp263
(lp264
(I5
I13
tp265
as(I4
I21
tp266
(lp267
(lp268
I4
aI22
aa(lp269
I4
aI20
aas(I9
I19
tp270
(lp271
(lp272
I10
aI19
aas(I7
I8
tp273
(lp274
(lp275
I7
aI9
aa(lp276
I7
aI7
aas(I6
I16
tp277
(lp278
(I7
I16
tp279
as(I12
I8
tp280
(lp281
(I13
I8
tp282
as(I11
I16
tp283
(lp284
(I11
I17
tp285
as(I7
I21
tp286
(lp287
(lp288
I8
aI21
aa(lp289
I7
aI20
aas(I13
I13
tp290
(lp291
(lp292
I13
aI14
aa(lp293
I13
aI12
aas(I2
I18
tp294
(lp295
(lp296
I2
aI19
aa(lp297
I2
aI17
aas(I18
I15
tp298
(lp299
(I18
I16
tp300
as(I8
I9
tp301
(lp302
(I7
I9
tp303
as(I4
I12
tp304
(lp305
(I5
I12
tp306
as(I11
I8
tp307
(lp308
(I11
I7
tp309
as(I9
I4
tp310
(lp311
(lp312
I10
aI4
aa(lp313
I8
aI4
aas(I7
I11
tp314
(lp315
(lp316
I7
aI12
aa(lp317
I7
aI10
aas(I3
I17
tp318
(lp319
(I2
I17
tp320
as(I10
I3
tp321
(lp322
(I10
I4
tp323
as(I6
I17
tp324
(lp325
(I5
I17
tp326
as(I16
I7
tp327
(lp328
(I15
I7
tp329
as(I6
I14
tp330
(lp331
(I7
I14
tp332
as(I19
I18
tp333
(lp334
(I18
I18
tp335
as(I16
I10
tp336
(lp337
(I15
I10
tp338
as(I14
I5
tp339
(lp340
(I14
I4
tp341
as(I13
I3
tp342
(lp343
(I13
I4
tp344
as(I12
I13
tp345
(lp346
(I13
I13
tp347
as(I13
I16
tp348
(lp349
(lp350
I13
aI17
aa(lp351
I13
aI15
aas(I18
I16
tp352
(lp353
(lp354
I17
aI16
aa(lp355
I18
aI17
aas(I7
I13
tp356
(lp357
(lp358
I7
aI14
aa(lp359
I7
aI12
aas(I3
I6
tp360
(lp361
(I4
I6
tp362
as(I2
I2
tp363
(lp364
(lp365
I3
aI2
aa(lp366
I2
aI3
aas(I18
I18
tp367
(lp368
(lp369
I18
aI19
aa(lp370
I18
aI17
aas(I8
I6
tp371
(lp372
(I8
I7
tp373
as(I9
I7
tp374
(lp375
(lp376
I10
aI7
aa(lp377
I8
aI7
aas(I6
I4
tp378
(lp379
(lp380
I7
aI4
aa(lp381
I6
aI5
aas(I5
I4
tp382
(lp383
(I6
I4
tp384
as(I11
I4
tp385
(lp386
(lp387
I12
aI4
aa(lp388
I10
aI4
aas(I14
I21
tp389
(lp390
(lp391
I15
aI21
aa(lp392
I13
aI21
aas(I9
I20
tp393
(lp394
(I9
I19
tp395
as(I16
I4
tp396
(lp397
(I15
I4
tp398
as(I14
I19
tp399
(lp400
(I13
I19
tp401
as(I5
I17
tp402
(lp403
(lp404
I4
aI17
aas(I12
I7
tp405
(lp406
(lp407
I13
aI7
aa(lp408
I11
aI7
aas(I19
I17
tp409
(lp410
(I18
I17
tp411
as(I10
I19
tp412
(lp413
(lp414
I11
aI19
aa(lp415
I9
aI19
aas(I7
I18
tp416
(lp417
(lp418
I7
aI19
aa(lp419
I7
aI17
aas(I14
I6
tp420
(lp421
(I15
I6
tp422
as(I13
I6
tp423
(lp424
(lp425
I13
aI7
aas(I12
I18
tp426
(lp427
(I13
I18
tp428
as(I17
I22
tp429
(lp430
(I17
I21
tp431
as(I15
I7
tp432
(lp433
(lp434
I15
aI8
aa(lp435
I15
aI6
aas(I13
I19
tp436
(lp437
(lp438
I12
aI19
aa(lp439
I13
aI18
aas(I18
I21
tp440
(lp441
(lp442
I17
aI21
aa(lp443
I18
aI20
aas(I4
I11
tp444
(lp445
(I5
I11
tp446
as(I3
I5
tp447
(lp448
(I2
I5
tp449
as(I2
I7
tp450
(lp451
(lp452
I2
aI8
aa(lp453
I2
aI6
aas(I9
I13
tp454
(lp455
(I9
I12
tp456
as(I8
I3
tp457
(lp458
(I8
I4
tp459
as(I5
I10
tp460
(lp461
(lp462
I5
aI11
aa(lp463
I5
aI9
aas(I4
I6
tp464
(lp465
(lp466
I4
aI7
aa(lp467
I4
aI5
aas(I3
I22
tp468
(lp469
(lp470
I4
aI22
aa(lp471
I2
aI22
aas(I13
I18
tp472
(lp473
(lp474
I14
aI18
aa(lp475
I13
aI19
aa(lp476
I13
aI17
aas(I16
I13
tp477
(lp478
(I15
I13
tp479
as(I5
I7
tp480
(lp481
(lp482
I6
aI7
aa(lp483
I4
aI7
aas(I4
I17
tp484
(lp485
(lp486
I5
aI17
aa(lp487
I4
aI18
aas(I11
I3
tp488
(lp489
(I11
I4
tp490
as(I14
I8
tp491
(lp492
(I15
I8
tp493
as(I7
I4
tp494
(lp495
(lp496
I8
aI4
aa(lp497
I6
aI4
aas(I6
I20
tp498
(lp499
(I7
I20
tp500
as(I5
I20
tp501
(lp502
(I4
I20
tp503
as(I12
I4
tp504
(lp505
(lp506
I13
aI4
aa(lp507
I11
aI4
aas(I11
I20
tp508
(lp509
(I11
I21
tp510
as(I10
I20
tp511
(lp512
(I10
I19
tp513
as(I7
I17
tp514
(lp515
(lp516
I8
aI17
aa(lp517
I7
aI18
aa(lp518
I7
aI16
aas(I14
I3
tp519
(lp520
(I14
I4
tp521
as(I13
I9
tp522
(lp523
(lp524
I13
aI10
aa(lp525
I13
aI8
aas(I15
I21
tp526
(lp527
(lp528
I16
aI21
aa(lp529
I14
aI21
aas(I17
I17
tp530
(lp531
(I17
I16
tp532
as(I13
I22
tp533
(lp534
(I13
I21
tp535
as(I3
I15
tp536
(lp537
(lp538
I4
aI15
aa(lp539
I2
aI15
aas(I18
I22
tp540
(lp541
(I18
I21
tp542
as(I8
I13
tp543
(lp544
(I7
I13
tp545
as(I4
I8
tp546
(lp547
(I4
I7
tp548
as(I2
I8
tp549
(lp550
(lp551
I2
aI9
aa(lp552
I2
aI7
aas(I9
I8
tp553
(lp554
(I9
I7
tp555
as(I5
I13
tp556
(lp557
(lp558
I5
aI14
aa(lp559
I5
aI12
aas(I3
I21
tp560
(lp561
(I4
I21
tp562
as(I8
I19
tp563
(lp564
(I9
I19
tp565
as(I15
I13
tp566
(lp567
(lp568
I15
aI14
aa(lp569
I15
aI12
aas(I4
I22
tp570
(lp571
(lp572
I3
aI22
aa(lp573
I4
aI21
aas(I6
I12
tp574
(lp575
(I5
I12
tp576
as(I9
I18
tp577
(lp578
(I9
I17
tp579
as(I15
I19
tp580
(lp581
(I15
I18
tp582
as(I14
I9
tp583
(lp584
(I13
I9
tp585
as(I12
I9
tp586
(lp587
(I13
I9
tp588
as(I11
I19
tp589
(lp590
(lp591
I12
aI19
aa(lp592
I10
aI19
aas(I17
I15
tp593
(lp594
(I17
I16
tp595
as(I16
I17
tp596
(lp597
(I16
I18
tp598
as(I13
I12
tp599
(lp600
(lp601
I13
aI13
aa(lp602
I13
aI11
aas(I12
I20
tp603
(lp604
(I12
I21
tp605
as(I2
I19
tp606
(lp607
(lp608
I2
aI20
aa(lp609
I2
aI18
aas(I15
I17
tp610
(lp611
(I15
I16
tp612
as(I16
I22
tp613
(lp614
(I16
I21
tp615
as(I11
I12
tp616
(lp617
(lp618
I10
aI12
aas(I3
I10
tp619
(lp620
(I3
I9
tp621
as(I8
I10
tp622
(lp623
(I7
I10
tp624
as(I15
I12
tp625
(lp626
(lp627
I15
aI13
aa(lp628
I15
aI11
aas(I4
I13
tp629
(lp630
(I5
I13
tp631
as(I9
I11
tp632
(lp633
(I9
I12
tp634
as(I3
I16
tp635
(lp636
(I2
I16
tp637
as(I16
I12
tp638
(lp639
(I15
I12
tp640
as(I6
I15
tp641
(lp642
(I7
I15
tp643
as(I16
I9
tp644
(lp645
(I15
I9
tp646
as(I12
I3
tp647
(lp648
(I12
I4
tp649
as(I11
I13
tp650
(lp651
(I11
I12
tp652
as(I6
I19
tp653
(lp654
(I7
I19
tp655
as(I15
I22
tp656
(lp657
(I15
I21
tp658
as(I6
I18
tp659
(lp660
(I7
I18
tp661
as(I12
I14
tp662
(lp663
(I13
I14
tp664
as(I15
I3
tp665
(lp666
(I15
I4
tp667
as(I13
I15
tp668
(lp669
(lp670
I13
aI16
aa(lp671
I13
aI14
aas(I6
I11
tp672
(lp673
(I5
I11
tp674
as(I2
I20
tp675
(lp676
(lp677
I2
aI21
aa(lp678
I2
aI19
aas(I18
I17
tp679
(lp680
(lp681
I18
aI18
aa(lp682
I18
aI16
aas(I7
I7
tp683
(lp684
(lp685
I8
aI7
aa(lp686
I6
aI7
aa(lp687
I7
aI8
aas(I3
I9
tp688
(lp689
(lp690
I4
aI9
aa(lp691
I2
aI9
aas(I2
I3
tp692
(lp693
(lp694
I2
aI4
aa(lp695
I2
aI2
aas(I6
I21
tp696
(lp697
(I7
I21
tp698
as(I8
I7
tp699
(lp700
(lp701
I9
aI7
aa(lp702
I7
aI7
aas(I4
I2
tp703
(lp704
(lp705
I3
aI2
aa(lp706
I4
aI3
aas(I2
I14
tp707
(lp708
(I2
I15
tp709
as(I9
I6
tp710
(lp711
(I9
I7
tp712
as(I6
I5
tp713
(lp714
(lp715
I6
aI6
aa(lp716
I6
aI4
aas(I5
I3
tp717
(lp718
(I4
I3
tp719
as(I11
I7
tp720
(lp721
(lp722
I12
aI7
aa(lp723
I10
aI7
aas(I10
I5
tp724
(lp725
(I10
I4
tp726
as(I8
I16
tp727
(lp728
(I8
I17
tp729
as(I16
I5
tp730
(lp731
(I15
I5
tp732
as(I14
I16
tp733
(lp734
(I15
I16
tp735
as(I5
I16
tp736
(lp737
(I5
I15
tp738
as(I19
I16
tp739
(lp740
(I18
I16
tp741
as(I10
I16
tp742
(lp743
(I10
I17
tp744
as(I16
I8
tp745
(lp746
(I15
I8
tp747
as(I14
I7
tp748
(lp749
(I13
I7
tp750
as(I13
I5
tp751
(lp752
(I13
I4
tp753
as(I12
I19
tp754
(lp755
(lp756
I13
aI19
aa(lp757
I11
aI19
aas(I16
I14
tp758
(lp759
(I15
I14
tp760
as(I17
I21
tp761
(lp762
(lp763
I18
aI21
aa(lp764
I16
aI21
aas(I15
I6
tp765
(lp766
(lp767
I15
aI7
aa(lp768
I15
aI5
aas(I16
I19
tp769
(lp770
(lp771
I16
aI18
aas(I7
I9
tp772
(lp773
(lp774
I7
aI10
aa(lp775
I7
aI8
aas(I8
I22
tp776
(lp777
(I8
I21
tp778
as(I15
I8
tp779
(lp780
(lp781
I15
aI9
aa(lp782
I15
aI7
aas(I19
I21
tp783
(lp784
(I18
I21
tp785
as(I3
I4
tp786
(lp787
(I2
I4
tp788
as(I2
I4
tp789
(lp790
(lp791
I2
aI5
aa(lp792
I2
aI3
aas(I9
I12
tp793
(lp794
(lp795
I10
aI12
aa(lp796
I8
aI12
aas(I7
I20
tp797
(lp798
(lp799
I7
aI21
aa(lp800
I7
aI19
aas(I5
I9
tp801
(lp802
(lp803
I4
aI9
aa(lp804
I5
aI10
aas(I4
I7
tp805
(lp806
(lp807
I5
aI7
aa(lp808
I4
aI6
aas(I10
I11
tp809
(lp810
(I10
I12
tp811
as(I15
I20
tp812
(lp813
(I15
I21
tp814
as(I6
I6
tp815
(lp816
(lp817
I6
aI7
aa(lp818
I6
aI5
aas(I5
I6
tp819
(lp820
(I4
I6
tp821
as(I4
I18
tp822
(lp823
(lp824
I4
aI19
aa(lp825
I4
aI17
aas(I10
I6
tp826
(lp827
(I10
I7
tp828
as(I9
I22
tp829
(lp830
(I9
I21
tp831
as(I7
I14
tp832
(lp833
(lp834
I7
aI15
aa(lp835
I7
aI13
aas(I14
I13
tp836
(lp837
(I15
I13
tp838
as(I5
I19
tp839
(lp840
(I4
I19
tp841
as(I12
I5
tp842
(lp843
(I12
I4
tp844
as(I10
I4
tp845
(lp846
(lp847
I11
aI4
aa(lp848
I9
aI4
aas(I14
I10
tp849
(lp850
(I13
I10
tp851
as(I16
I21
tp852
(lp853
(lp854
I17
aI21
aa(lp855
I15
aI21
aas(I13
I8
tp856
(lp857
(lp858
I13
aI9
aa(lp859
I13
aI7
aas(I12
I16
tp860
(lp861
(I13
I16
tp862
as(I17
I16
tp863
(lp864
(lp865
I18
aI16
aa(lp866
I16
aI16
aas(I15
I5
tp867
(lp868
(lp869
I15
aI6
aa(lp870
I15
aI4
aas(I13
I21
tp871
(lp872
(lp873
I14
aI21
aa(lp874
I12
aI21
aas(I3
I14
tp875
(lp876
(I3
I15
tp877
as(I8
I14
tp878
(lp879
(I7
I14
tp880
as(I4
I9
tp881
(lp882
(lp883
I5
aI9
aa(lp884
I3
aI9
aas(I3
I3
tp885
(lp886
(I2
I3
tp887
as(I2
I9
tp888
(lp889
(lp890
I3
aI9
aa(lp891
I2
aI8
aas(I14
I12
tp892
(lp893
(I15
I12
tp894
as(I7
I16
tp895
(lp896
(lp897
I7
aI17
aa(lp898
I7
aI15
aas(I4
I4
tp899
(lp900
(lp901
I4
aI5
aa(lp902
I4
aI3
aas(I3
I20
tp903
(lp904
(I4
I20
tp905
as(I10
I12
tp906
(lp907
(lp908
I11
aI12
aa(lp909
I9
aI12
aas(I8
I20
tp910
(lp911
(I8
I21
tp912
as(I6
I3
tp913
(lp914
(I6
I4
tp915
as(I15
I16
tp916
(lp917
(lp918
I16
aI16
aa(lp919
I15
aI15
aas(I9
I17
tp920
(lp921
(lp922
I10
aI17
aa(lp923
I8
aI17
aas(I15
I18
tp924
(lp925
(lp926
I16
aI18
aa(lp927
I14
aI18
aas(I14
I14
tp928
(lp929
(I15
I14
tp930
as(I5
I22
tp931
(lp932
(I4
I22
tp933
as(I12
I10
tp934
(lp935
(I13
I10
tp936
as(I11
I18
tp937
(lp938
(I11
I19
tp939
as(I14
I22
tp940
(lp941
(I14
I21
tp942
as(I16
I18
tp943
(lp944
(lp945
I15
aI18
aa(lp946
I16
aI19
aas(I13
I11
tp947
(lp948
(lp949
I13
aI12
aa(lp950
I13
aI10
aas(I12
I21
tp951
(lp952
(lp953
I13
aI21
aa(lp954
I11
aI21
aas(I2
I16
tp955
(lp956
(lp957
I2
aI17
aa(lp958
I2
aI15
aas(I17
I19
tp959
(lp960
(I16
I19
tp961
as(I8
I11
tp962
(lp963
(I8
I12
tp964
as(I15
I9
tp965
(lp966
(lp967
I15
aI10
aa(lp968
I15
aI8
aas(I16
I11
tp969
(lp970
(I15
I11
tp971
as(I4
I14
tp972
(lp973
(I4
I15
tp974
as(I2
I10
tp975
(lp976
(I2
I9
tp977
as(I2
I15
tp978
(lp979
(lp980
I3
aI15
aa(lp981
I2
aI16
aas(I5
I15
tp982
(lp983
(lp984
I4
aI15
aa(lp985
I5
aI14
aas(I16
I16
tp986
(lp987
(lp988
I17
aI16
aa(lp989
I15
aI16
aas(I3
I19
tp990
(lp991
(I2
I19
tp992
as(I8
I17
tp993
(lp994
(lp995
I9
aI17
aa(lp996
I7
aI17
aas(I14
I20
tp997
(lp998
(I14
I21
tp999
as(I4
I20
tp1000
(lp1001
(lp1002
I4
aI21
aa(lp1003
I4
aI19
aas(I19
I20
tp1004
(lp1005
(I18
I20
tp1006
as(I10
I21
tp1007
(lp1008
(lp1009
I11
aI21
aa(lp1010
I9
aI21
aas(I7
I15
tp1011
(lp1012
(lp1013
I7
aI16
aa(lp1014
I7
aI14
aas(I14
I11
tp1015
(lp1016
(I13
I11
tp1017
as(I12
I15
tp1018
(lp1019
(I13
I15
tp1020
as(I11
I17
tp1021
(lp1022
(lp1023
I12
aI17
aa(lp1024
I10
aI17
aas(I15
I11
tp1025
(lp1026
(lp1027
I15
aI12
aa(lp1028
I15
aI10
aas(I13
I14
tp1029
(lp1030
(lp1031
I13
aI15
aa(lp1032
I13
aI13
aas(I2
I21
tp1033
(lp1034
(lp1035
I2
aI22
aa(lp1036
I2
aI20
aas(I3
I8
tp1037
(lp1038
(I2
I8
tp1039
as(I8
I8
tp1040
(lp1041
(I7
I8
tp1042
as(I4
I3
tp1043
(lp1044
(lp1045
I4
aI4
aa(lp1046
I4
aI2
aas(I16
I15
tp1047
(lp1048
(I16
I16
tp1049
as(I15
I10
tp1050
(lp1051
(lp1052
I15
aI11
aa(lp1053
I15
aI9
aas(I9
I5
tp1054
(lp1055
(I9
I4
tp1056
as(I5
I2
tp1057
(lp1058
(I4
I2
tp1059
as(I5
I12
tp1060
(lp1061
(lp1062
I5
aI13
aa(lp1063
I5
aI11
aas(I11
I6
tp1064
(lp1065
(I11
I7
tp1066
as(I16
I20
tp1067
(lp1068
(I16
I19
tp1069
assS'mapa'
p1070
(lp1071
(lp1072
g0
(cgenerowanie_swiata
lokalizacja
p1073
g2
Ntp1074
Rp1075
(dp1076
S'y'
p1077
I0
sS'x'
p1078
I0
sS'droga'
p1079
(lp1080
sS'typ'
p1081
S'Pusty'
p1082
sbag0
(g1073
g2
Ntp1083
Rp1084
(dp1085
g1077
I0
sg1078
I1
sg1079
(lp1086
sg1081
g1082
sbag0
(g1073
g2
Ntp1087
Rp1088
(dp1089
g1077
I0
sg1078
I2
sg1079
(lp1090
sg1081
g1082
sbag0
(g1073
g2
Ntp1091
Rp1092
(dp1093
g1077
I0
sg1078
I3
sg1079
(lp1094
sg1081
g1082
sbag0
(g1073
g2
Ntp1095
Rp1096
(dp1097
g1077
I0
sg1078
I4
sg1079
(lp1098
sg1081
g1082
sbag0
(g1073
g2
Ntp1099
Rp1100
(dp1101
g1077
I0
sg1078
I5
sg1079
(lp1102
sg1081
g1082
sbag0
(g1073
g2
Ntp1103
Rp1104
(dp1105
g1077
I0
sg1078
I6
sg1079
(lp1106
sg1081
g1082
sbag0
(g1073
g2
Ntp1107
Rp1108
(dp1109
g1077
I0
sg1078
I7
sg1079
(lp1110
sg1081
g1082
sbag0
(g1073
g2
Ntp1111
Rp1112
(dp1113
g1077
I0
sg1078
I8
sg1079
(lp1114
sg1081
g1082
sbag0
(g1073
g2
Ntp1115
Rp1116
(dp1117
g1077
I0
sg1078
I9
sg1079
(lp1118
sg1081
g1082
sbag0
(g1073
g2
Ntp1119
Rp1120
(dp1121
g1077
I0
sg1078
I10
sg1079
(lp1122
sg1081
g1082
sbag0
(g1073
g2
Ntp1123
Rp1124
(dp1125
g1077
I0
sg1078
I11
sg1079
(lp1126
sg1081
g1082
sbag0
(g1073
g2
Ntp1127
Rp1128
(dp1129
g1077
I0
sg1078
I12
sg1079
(lp1130
sg1081
g1082
sbag0
(g1073
g2
Ntp1131
Rp1132
(dp1133
g1077
I0
sg1078
I13
sg1079
(lp1134
sg1081
g1082
sbag0
(g1073
g2
Ntp1135
Rp1136
(dp1137
g1077
I0
sg1078
I14
sg1079
(lp1138
sg1081
g1082
sbag0
(g1073
g2
Ntp1139
Rp1140
(dp1141
g1077
I0
sg1078
I15
sg1079
(lp1142
sg1081
g1082
sbag0
(g1073
g2
Ntp1143
Rp1144
(dp1145
g1077
I0
sg1078
I16
sg1079
(lp1146
sg1081
g1082
sbag0
(g1073
g2
Ntp1147
Rp1148
(dp1149
g1077
I0
sg1078
I17
sg1079
(lp1150
sg1081
g1082
sbag0
(g1073
g2
Ntp1151
Rp1152
(dp1153
g1077
I0
sg1078
I18
sg1079
(lp1154
sg1081
g1082
sbag0
(g1073
g2
Ntp1155
Rp1156
(dp1157
g1077
I0
sg1078
I19
sg1079
(lp1158
sg1081
g1082
sbag0
(g1073
g2
Ntp1159
Rp1160
(dp1161
g1077
I0
sg1078
I20
sg1079
(lp1162
sg1081
g1082
sbag0
(g1073
g2
Ntp1163
Rp1164
(dp1165
g1077
I0
sg1078
I21
sg1079
(lp1166
sg1081
g1082
sbag0
(g1073
g2
Ntp1167
Rp1168
(dp1169
g1077
I0
sg1078
I22
sg1079
(lp1170
sg1081
g1082
sbag0
(g1073
g2
Ntp1171
Rp1172
(dp1173
g1077
I0
sg1078
I23
sg1079
(lp1174
sg1081
g1082
sbag0
(g1073
g2
Ntp1175
Rp1176
(dp1177
g1077
I0
sg1078
I24
sg1079
(lp1178
sg1081
g1082
sbaa(lp1179
g0
(g1073
g2
Ntp1180
Rp1181
(dp1182
g1077
I1
sg1078
I0
sg1079
(lp1183
sg1081
g1082
sbag0
(g1073
g2
Ntp1184
Rp1185
(dp1186
g1077
I1
sg1078
I1
sg1079
(lp1187
sg1081
g1082
sbag0
(g1073
g2
Ntp1188
Rp1189
(dp1190
g1077
I1
sg1078
I2
sg1079
(lp1191
sg1081
g1082
sbag0
(g1073
g2
Ntp1192
Rp1193
(dp1194
g1077
I1
sg1078
I3
sg1079
(lp1195
sg1081
g1082
sbag0
(g1073
g2
Ntp1196
Rp1197
(dp1198
g1077
I1
sg1078
I4
sg1079
(lp1199
sg1081
g1082
sbag0
(g1073
g2
Ntp1200
Rp1201
(dp1202
g1077
I1
sg1078
I5
sg1079
(lp1203
sg1081
g1082
sbag0
(g1073
g2
Ntp1204
Rp1205
(dp1206
g1077
I1
sg1078
I6
sg1079
(lp1207
sg1081
g1082
sbag0
(g1073
g2
Ntp1208
Rp1209
(dp1210
g1077
I1
sg1078
I7
sg1079
(lp1211
sg1081
g1082
sbag0
(g1073
g2
Ntp1212
Rp1213
(dp1214
g1077
I1
sg1078
I8
sg1079
(lp1215
sg1081
g1082
sbag0
(g1073
g2
Ntp1216
Rp1217
(dp1218
g1077
I1
sg1078
I9
sg1079
(lp1219
sg1081
g1082
sbag0
(g1073
g2
Ntp1220
Rp1221
(dp1222
g1077
I1
sg1078
I10
sg1079
(lp1223
sg1081
g1082
sbag0
(g1073
g2
Ntp1224
Rp1225
(dp1226
g1077
I1
sg1078
I11
sg1079
(lp1227
sg1081
g1082
sbag0
(g1073
g2
Ntp1228
Rp1229
(dp1230
g1077
I1
sg1078
I12
sg1079
(lp1231
sg1081
g1082
sbag0
(g1073
g2
Ntp1232
Rp1233
(dp1234
g1077
I1
sg1078
I13
sg1079
(lp1235
sg1081
g1082
sbag0
(g1073
g2
Ntp1236
Rp1237
(dp1238
g1077
I1
sg1078
I14
sg1079
(lp1239
sg1081
g1082
sbag0
(g1073
g2
Ntp1240
Rp1241
(dp1242
g1077
I1
sg1078
I15
sg1079
(lp1243
sg1081
g1082
sbag0
(g1073
g2
Ntp1244
Rp1245
(dp1246
g1077
I1
sg1078
I16
sg1079
(lp1247
sg1081
g1082
sbag0
(g1073
g2
Ntp1248
Rp1249
(dp1250
g1077
I1
sg1078
I17
sg1079
(lp1251
sg1081
g1082
sbag0
(g1073
g2
Ntp1252
Rp1253
(dp1254
g1077
I1
sg1078
I18
sg1079
(lp1255
sg1081
g1082
sbag0
(g1073
g2
Ntp1256
Rp1257
(dp1258
g1077
I1
sg1078
I19
sg1079
(lp1259
sg1081
g1082
sbag0
(g1073
g2
Ntp1260
Rp1261
(dp1262
g1077
I1
sg1078
I20
sg1079
(lp1263
sg1081
g1082
sbag0
(g1073
g2
Ntp1264
Rp1265
(dp1266
g1077
I1
sg1078
I21
sg1079
(lp1267
sg1081
g1082
sbag0
(g1073
g2
Ntp1268
Rp1269
(dp1270
g1077
I1
sg1078
I22
sg1079
(lp1271
sg1081
g1082
sbag0
(g1073
g2
Ntp1272
Rp1273
(dp1274
g1077
I1
sg1078
I23
sg1079
(lp1275
sg1081
g1082
sbag0
(g1073
g2
Ntp1276
Rp1277
(dp1278
g1077
I1
sg1078
I24
sg1079
(lp1279
sg1081
g1082
sbaa(lp1280
g0
(g1073
g2
Ntp1281
Rp1282
(dp1283
g1077
I2
sg1078
I0
sg1079
(lp1284
sg1081
g1082
sbag0
(g1073
g2
Ntp1285
Rp1286
(dp1287
g1077
I2
sg1078
I1
sg1079
(lp1288
sg1081
g1082
sbag0
(g1073
g2
Ntp1289
Rp1290
(dp1291
g1077
I2
sg1078
I2
sg1079
g364
sg1081
S'Droga'
p1292
sbag0
(g1073
g2
Ntp1293
Rp1294
(dp1295
g1077
I2
sg1078
I3
sg1079
g693
sg1081
g1292
sbag0
(g1073
g2
Ntp1296
Rp1297
(dp1298
g1077
I2
sg1078
I4
sg1079
g790
sg1081
g1292
sbag0
(g1073
g2
Ntp1299
Rp1300
(dp1301
g1077
I2
sg1078
I5
sg1079
g72
sg1081
g1292
sbag0
(g1073
g2
Ntp1302
Rp1303
(dp1304
g1077
I2
sg1078
I6
sg1079
g167
sg1081
g1292
sbag0
(g1073
g2
Ntp1305
Rp1306
(dp1307
g1077
I2
sg1078
I7
sg1079
g451
sg1081
g1292
sbag0
(g1073
g2
Ntp1308
Rp1309
(dp1310
g1077
I2
sg1078
I8
sg1079
g550
sg1081
g1292
sbag0
(g1073
g2
Ntp1311
Rp1312
(dp1313
g1077
I2
sg1078
I9
sg1079
g889
sg1081
g1292
sbag0
(g1073
g2
Ntp1314
Rp1315
(dp1316
g1077
I10
sg1078
I2
sg1079
g976
sg1081
S'Praca'
p1317
sbag0
(g1073
g2
Ntp1318
Rp1319
(dp1320
g1077
I2
sg1078
I11
sg1079
(lp1321
sg1081
g1082
sbag0
(g1073
g2
Ntp1322
Rp1323
(dp1324
g1077
I2
sg1078
I12
sg1079
(lp1325
sg1081
g1082
sbag0
(g1073
g2
Ntp1326
Rp1327
(dp1328
g1077
I2
sg1078
I13
sg1079
(lp1329
sg1081
g1082
sbag0
(g1073
g2
Ntp1330
Rp1331
(dp1332
g1077
I14
sg1078
I2
sg1079
g708
sg1081
S'Dom'
p1333
sbag0
(g1073
g2
Ntp1334
Rp1335
(dp1336
g1077
I2
sg1078
I15
sg1079
g979
sg1081
g1292
sbag0
(g1073
g2
Ntp1337
Rp1338
(dp1339
g1077
I2
sg1078
I16
sg1079
g956
sg1081
g1292
sbag0
(g1073
g2
Ntp1340
Rp1341
(dp1342
g1077
I2
sg1078
I17
sg1079
g225
sg1081
g1292
sbag0
(g1073
g2
Ntp1343
Rp1344
(dp1345
g1077
I2
sg1078
I18
sg1079
g295
sg1081
g1292
sbag0
(g1073
g2
Ntp1346
Rp1347
(dp1348
g1077
I2
sg1078
I19
sg1079
g607
sg1081
g1292
sbag0
(g1073
g2
Ntp1349
Rp1350
(dp1351
g1077
I2
sg1078
I20
sg1079
g676
sg1081
g1292
sbag0
(g1073
g2
Ntp1352
Rp1353
(dp1354
g1077
I2
sg1078
I21
sg1079
g1034
sg1081
g1292
sbag0
(g1073
g2
Ntp1355
Rp1356
(dp1357
g1077
I2
sg1078
I22
sg1079
g61
sg1081
g1292
sbag0
(g1073
g2
Ntp1358
Rp1359
(dp1360
g1077
I2
sg1078
I23
sg1079
(lp1361
sg1081
g1082
sbag0
(g1073
g2
Ntp1362
Rp1363
(dp1364
g1077
I2
sg1078
I24
sg1079
(lp1365
sg1081
g1082
sbaa(lp1366
g0
(g1073
g2
Ntp1367
Rp1368
(dp1369
g1077
I3
sg1078
I0
sg1079
(lp1370
sg1081
g1082
sbag0
(g1073
g2
Ntp1371
Rp1372
(dp1373
g1077
I3
sg1078
I1
sg1079
(lp1374
sg1081
g1082
sbag0
(g1073
g2
Ntp1375
Rp1376
(dp1377
g1077
I3
sg1078
I2
sg1079
g163
sg1081
g1292
sbag0
(g1073
g2
Ntp1378
Rp1379
(dp1380
g1077
I3
sg1078
I3
sg1079
g886
sg1081
g1333
sbag0
(g1073
g2
Ntp1381
Rp1382
(dp1383
g1077
I4
sg1078
I3
sg1079
g787
sg1081
g1333
sbag0
(g1073
g2
Ntp1384
Rp1385
(dp1386
g1077
I5
sg1078
I3
sg1079
g448
sg1081
S'Przestrzen komercyjna'
p1387
sbag0
(g1073
g2
Ntp1388
Rp1389
(dp1390
g1077
I6
sg1078
I3
sg1079
g361
sg1081
g1333
sbag0
(g1073
g2
Ntp1391
Rp1392
(dp1393
g1077
I7
sg1078
I3
sg1079
g69
sg1081
g1333
sbag0
(g1073
g2
Ntp1394
Rp1395
(dp1396
g1077
I8
sg1078
I3
sg1079
g1038
sg1081
g1387
sbag0
(g1073
g2
Ntp1397
Rp1398
(dp1399
g1077
I3
sg1078
I9
sg1079
g689
sg1081
g1292
sbag0
(g1073
g2
Ntp1400
Rp1401
(dp1402
g1077
I10
sg1078
I3
sg1079
g620
sg1081
g1333
sbag0
(g1073
g2
Ntp1403
Rp1404
(dp1405
g1077
I3
sg1078
I11
sg1079
(lp1406
sg1081
g1082
sbag0
(g1073
g2
Ntp1407
Rp1408
(dp1409
g1077
I3
sg1078
I12
sg1079
(lp1410
sg1081
g1082
sbag0
(g1073
g2
Ntp1411
Rp1412
(dp1413
g1077
I3
sg1078
I13
sg1079
(lp1414
sg1081
g1082
sbag0
(g1073
g2
Ntp1415
Rp1416
(dp1417
g1077
I14
sg1078
I3
sg1079
g876
sg1081
g1317
sbag0
(g1073
g2
Ntp1418
Rp1419
(dp1420
g1077
I3
sg1078
I15
sg1079
g537
sg1081
g1292
sbag0
(g1073
g2
Ntp1421
Rp1422
(dp1423
g1077
I16
sg1078
I3
sg1079
g636
sg1081
g1387
sbag0
(g1073
g2
Ntp1424
Rp1425
(dp1426
g1077
I17
sg1078
I3
sg1079
g319
sg1081
g1333
sbag0
(g1073
g2
Ntp1427
Rp1428
(dp1429
g1077
I18
sg1078
I3
sg1079
g258
sg1081
g1333
sbag0
(g1073
g2
Ntp1430
Rp1431
(dp1432
g1077
I19
sg1078
I3
sg1079
g991
sg1081
g1317
sbag0
(g1073
g2
Ntp1433
Rp1434
(dp1435
g1077
I20
sg1078
I3
sg1079
g904
sg1081
g1333
sbag0
(g1073
g2
Ntp1436
Rp1437
(dp1438
g1077
I21
sg1078
I3
sg1079
g561
sg1081
g1333
sbag0
(g1073
g2
Ntp1439
Rp1440
(dp1441
g1077
I3
sg1078
I22
sg1079
g469
sg1081
g1292
sbag0
(g1073
g2
Ntp1442
Rp1443
(dp1444
g1077
I3
sg1078
I23
sg1079
(lp1445
sg1081
g1082
sbag0
(g1073
g2
Ntp1446
Rp1447
(dp1448
g1077
I3
sg1078
I24
sg1079
(lp1449
sg1081
g1082
sbaa(lp1450
g0
(g1073
g2
Ntp1451
Rp1452
(dp1453
g1077
I4
sg1078
I0
sg1079
(lp1454
sg1081
g1082
sbag0
(g1073
g2
Ntp1455
Rp1456
(dp1457
g1077
I4
sg1078
I1
sg1079
(lp1458
sg1081
g1082
sbag0
(g1073
g2
Ntp1459
Rp1460
(dp1461
g1077
I4
sg1078
I2
sg1079
g704
sg1081
g1292
sbag0
(g1073
g2
Ntp1462
Rp1463
(dp1464
g1077
I4
sg1078
I3
sg1079
g1044
sg1081
g1292
sbag0
(g1073
g2
Ntp1465
Rp1466
(dp1467
g1077
I4
sg1078
I4
sg1079
g900
sg1081
g1292
sbag0
(g1073
g2
Ntp1468
Rp1469
(dp1470
g1077
I4
sg1078
I5
sg1079
g179
sg1081
g1292
sbag0
(g1073
g2
Ntp1471
Rp1472
(dp1473
g1077
I4
sg1078
I6
sg1079
g465
sg1081
g1292
sbag0
(g1073
g2
Ntp1474
Rp1475
(dp1476
g1077
I4
sg1078
I7
sg1079
g806
sg1081
g1292
sbag0
(g1073
g2
Ntp1477
Rp1478
(dp1479
g1077
I8
sg1078
I4
sg1079
g547
sg1081
g1333
sbag0
(g1073
g2
Ntp1480
Rp1481
(dp1482
g1077
I4
sg1078
I9
sg1079
g882
sg1081
g1292
sbag0
(g1073
g2
Ntp1483
Rp1484
(dp1485
g1077
I10
sg1078
I4
sg1079
g160
sg1081
g1333
sbag0
(g1073
g2
Ntp1486
Rp1487
(dp1488
g1077
I11
sg1078
I4
sg1079
g445
sg1081
g1317
sbag0
(g1073
g2
Ntp1489
Rp1490
(dp1491
g1077
I12
sg1078
I4
sg1079
g305
sg1081
g1317
sbag0
(g1073
g2
Ntp1492
Rp1493
(dp1494
g1077
I13
sg1078
I4
sg1079
g630
sg1081
g1333
sbag0
(g1073
g2
Ntp1495
Rp1496
(dp1497
g1077
I14
sg1078
I4
sg1079
g973
sg1081
g1317
sbag0
(g1073
g2
Ntp1498
Rp1499
(dp1500
g1077
I4
sg1078
I15
sg1079
g242
sg1081
g1292
sbag0
(g1073
g2
Ntp1501
Rp1502
(dp1503
g1077
I16
sg1078
I4
sg1079
g193
sg1081
g1317
sbag0
(g1073
g2
Ntp1504
Rp1505
(dp1506
g1077
I4
sg1078
I17
sg1079
g485
sg1081
g1292
sbag0
(g1073
g2
Ntp1507
Rp1508
(dp1509
g1077
I4
sg1078
I18
sg1079
g823
sg1081
g1292
sbag0
(g1073
g2
Ntp1510
Rp1511
(dp1512
g1077
I4
sg1078
I19
sg1079
g100
sg1081
g1292
sbag0
(g1073
g2
Ntp1513
Rp1514
(dp1515
g1077
I4
sg1078
I20
sg1079
g1001
sg1081
g1292
sbag0
(g1073
g2
Ntp1516
Rp1517
(dp1518
g1077
I4
sg1078
I21
sg1079
g267
sg1081
g1292
sbag0
(g1073
g2
Ntp1519
Rp1520
(dp1521
g1077
I4
sg1078
I22
sg1079
g571
sg1081
g1292
sbag0
(g1073
g2
Ntp1522
Rp1523
(dp1524
g1077
I4
sg1078
I23
sg1079
(lp1525
sg1081
g1082
sbag0
(g1073
g2
Ntp1526
Rp1527
(dp1528
g1077
I4
sg1078
I24
sg1079
(lp1529
sg1081
g1082
sbaa(lp1530
g0
(g1073
g2
Ntp1531
Rp1532
(dp1533
g1077
I5
sg1078
I0
sg1079
(lp1534
sg1081
g1082
sbag0
(g1073
g2
Ntp1535
Rp1536
(dp1537
g1077
I5
sg1078
I1
sg1079
(lp1538
sg1081
g1082
sbag0
(g1073
g2
Ntp1539
Rp1540
(dp1541
g1077
I2
sg1078
I5
sg1079
g1058
sg1081
g1333
sbag0
(g1073
g2
Ntp1542
Rp1543
(dp1544
g1077
I3
sg1078
I5
sg1079
g718
sg1081
g1333
sbag0
(g1073
g2
Ntp1545
Rp1546
(dp1547
g1077
I4
sg1078
I5
sg1079
g383
sg1081
g1387
sbag0
(g1073
g2
Ntp1548
Rp1549
(dp1550
g1077
I5
sg1078
I5
sg1079
g97
sg1081
g1387
sbag0
(g1073
g2
Ntp1551
Rp1552
(dp1553
g1077
I6
sg1078
I5
sg1079
g820
sg1081
g1333
sbag0
(g1073
g2
Ntp1554
Rp1555
(dp1556
g1077
I5
sg1078
I7
sg1079
g481
sg1081
g1292
sbag0
(g1073
g2
Ntp1557
Rp1558
(dp1559
g1077
I8
sg1078
I5
sg1079
g83
sg1081
g1317
sbag0
(g1073
g2
Ntp1560
Rp1561
(dp1562
g1077
I5
sg1078
I9
sg1079
g802
sg1081
g1292
sbag0
(g1073
g2
Ntp1563
Rp1564
(dp1565
g1077
I5
sg1078
I10
sg1079
g461
sg1081
g1292
sbag0
(g1073
g2
Ntp1566
Rp1567
(dp1568
g1077
I5
sg1078
I11
sg1079
g175
sg1081
g1292
sbag0
(g1073
g2
Ntp1569
Rp1570
(dp1571
g1077
I5
sg1078
I12
sg1079
g1061
sg1081
g1292
sbag0
(g1073
g2
Ntp1572
Rp1573
(dp1574
g1077
I5
sg1078
I13
sg1079
g557
sg1081
g1292
sbag0
(g1073
g2
Ntp1575
Rp1576
(dp1577
g1077
I5
sg1078
I14
sg1079
g250
sg1081
g1292
sbag0
(g1073
g2
Ntp1578
Rp1579
(dp1580
g1077
I5
sg1078
I15
sg1079
g983
sg1081
g1292
sbag0
(g1073
g2
Ntp1581
Rp1582
(dp1583
g1077
I16
sg1078
I5
sg1079
g737
sg1081
g1333
sbag0
(g1073
g2
Ntp1584
Rp1585
(dp1586
g1077
I5
sg1078
I17
sg1079
g403
sg1081
g1292
sbag0
(g1073
g2
Ntp1587
Rp1588
(dp1589
g1077
I18
sg1078
I5
sg1079
g121
sg1081
g1333
sbag0
(g1073
g2
Ntp1590
Rp1591
(dp1592
g1077
I19
sg1078
I5
sg1079
g840
sg1081
S'Magazyn'
p1593
sbag0
(g1073
g2
Ntp1594
Rp1595
(dp1596
g1077
I20
sg1078
I5
sg1079
g502
sg1081
g1317
sbag0
(g1073
g2
Ntp1597
Rp1598
(dp1599
g1077
I21
sg1078
I5
sg1079
g205
sg1081
g1333
sbag0
(g1073
g2
Ntp1600
Rp1601
(dp1602
g1077
I22
sg1078
I5
sg1079
g932
sg1081
g1387
sbag0
(g1073
g2
Ntp1603
Rp1604
(dp1605
g1077
I5
sg1078
I23
sg1079
(lp1606
sg1081
g1082
sbag0
(g1073
g2
Ntp1607
Rp1608
(dp1609
g1077
I5
sg1078
I24
sg1079
(lp1610
sg1081
g1082
sbaa(lp1611
g0
(g1073
g2
Ntp1612
Rp1613
(dp1614
g1077
I6
sg1078
I0
sg1079
(lp1615
sg1081
g1082
sbag0
(g1073
g2
Ntp1616
Rp1617
(dp1618
g1077
I6
sg1078
I1
sg1079
(lp1619
sg1081
g1082
sbag0
(g1073
g2
Ntp1620
Rp1621
(dp1622
g1077
I6
sg1078
I2
sg1079
(lp1623
sg1081
g1082
sbag0
(g1073
g2
Ntp1624
Rp1625
(dp1626
g1077
I3
sg1078
I6
sg1079
g914
sg1081
g1333
sbag0
(g1073
g2
Ntp1627
Rp1628
(dp1629
g1077
I6
sg1078
I4
sg1079
g379
sg1081
g1292
sbag0
(g1073
g2
Ntp1630
Rp1631
(dp1632
g1077
I6
sg1078
I5
sg1079
g714
sg1081
g1292
sbag0
(g1073
g2
Ntp1633
Rp1634
(dp1635
g1077
I6
sg1078
I6
sg1079
g816
sg1081
g1292
sbag0
(g1073
g2
Ntp1636
Rp1637
(dp1638
g1077
I6
sg1078
I7
sg1079
g92
sg1081
g1292
sbag0
(g1073
g2
Ntp1639
Rp1640
(dp1641
g1077
I8
sg1078
I6
sg1079
g229
sg1081
g1333
sbag0
(g1073
g2
Ntp1642
Rp1643
(dp1644
g1077
I9
sg1078
I6
sg1079
g17
sg1081
g1333
sbag0
(g1073
g2
Ntp1645
Rp1646
(dp1647
g1077
I10
sg1078
I6
sg1079
g118
sg1081
g1333
sbag0
(g1073
g2
Ntp1648
Rp1649
(dp1650
g1077
I11
sg1078
I6
sg1079
g673
sg1081
g1333
sbag0
(g1073
g2
Ntp1651
Rp1652
(dp1653
g1077
I12
sg1078
I6
sg1079
g575
sg1081
g1333
sbag0
(g1073
g2
Ntp1654
Rp1655
(dp1656
g1077
I13
sg1078
I6
sg1079
g264
sg1081
g1317
sbag0
(g1073
g2
Ntp1657
Rp1658
(dp1659
g1077
I14
sg1078
I6
sg1079
g331
sg1081
g1333
sbag0
(g1073
g2
Ntp1660
Rp1661
(dp1662
g1077
I15
sg1078
I6
sg1079
g642
sg1081
g1333
sbag0
(g1073
g2
Ntp1663
Rp1664
(dp1665
g1077
I16
sg1078
I6
sg1079
g278
sg1081
g1333
sbag0
(g1073
g2
Ntp1666
Rp1667
(dp1668
g1077
I17
sg1078
I6
sg1079
g325
sg1081
g1333
sbag0
(g1073
g2
Ntp1669
Rp1670
(dp1671
g1077
I18
sg1078
I6
sg1079
g660
sg1081
g1333
sbag0
(g1073
g2
Ntp1672
Rp1673
(dp1674
g1077
I19
sg1078
I6
sg1079
g654
sg1081
g1333
sbag0
(g1073
g2
Ntp1675
Rp1676
(dp1677
g1077
I20
sg1078
I6
sg1079
g499
sg1081
g1387
sbag0
(g1073
g2
Ntp1678
Rp1679
(dp1680
g1077
I21
sg1078
I6
sg1079
g697
sg1081
g1317
sbag0
(g1073
g2
Ntp1681
Rp1682
(dp1683
g1077
I6
sg1078
I22
sg1079
(lp1684
sg1081
g1082
sbag0
(g1073
g2
Ntp1685
Rp1686
(dp1687
g1077
I6
sg1078
I23
sg1079
(lp1688
sg1081
g1082
sbag0
(g1073
g2
Ntp1689
Rp1690
(dp1691
g1077
I6
sg1078
I24
sg1079
(lp1692
sg1081
g1082
sbaa(lp1693
g0
(g1073
g2
Ntp1694
Rp1695
(dp1696
g1077
I7
sg1078
I0
sg1079
(lp1697
sg1081
g1082
sbag0
(g1073
g2
Ntp1698
Rp1699
(dp1700
g1077
I7
sg1078
I1
sg1079
(lp1701
sg1081
g1082
sbag0
(g1073
g2
Ntp1702
Rp1703
(dp1704
g1077
I7
sg1078
I2
sg1079
(lp1705
sg1081
g1082
sbag0
(g1073
g2
Ntp1706
Rp1707
(dp1708
g1077
I3
sg1078
I7
sg1079
g14
sg1081
g1333
sbag0
(g1073
g2
Ntp1709
Rp1710
(dp1711
g1077
I7
sg1078
I4
sg1079
g495
sg1081
g1292
sbag0
(g1073
g2
Ntp1712
Rp1713
(dp1714
g1077
I5
sg1078
I7
sg1079
g199
sg1081
g1333
sbag0
(g1073
g2
Ntp1715
Rp1716
(dp1717
g1077
I6
sg1078
I7
sg1079
g115
sg1081
g1317
sbag0
(g1073
g2
Ntp1718
Rp1719
(dp1720
g1077
I7
sg1078
I7
sg1079
g684
sg1081
g1292
sbag0
(g1073
g2
Ntp1721
Rp1722
(dp1723
g1077
I7
sg1078
I8
sg1079
g274
sg1081
g1292
sbag0
(g1073
g2
Ntp1724
Rp1725
(dp1726
g1077
I7
sg1078
I9
sg1079
g773
sg1081
g1292
sbag0
(g1073
g2
Ntp1727
Rp1728
(dp1729
g1077
I7
sg1078
I10
sg1079
g171
sg1081
g1292
sbag0
(g1073
g2
Ntp1730
Rp1731
(dp1732
g1077
I7
sg1078
I11
sg1079
g315
sg1081
g1292
sbag0
(g1073
g2
Ntp1733
Rp1734
(dp1735
g1077
I7
sg1078
I12
sg1079
g34
sg1081
g1292
sbag0
(g1073
g2
Ntp1736
Rp1737
(dp1738
g1077
I7
sg1078
I13
sg1079
g357
sg1081
g1292
sbag0
(g1073
g2
Ntp1739
Rp1740
(dp1741
g1077
I7
sg1078
I14
sg1079
g833
sg1081
g1292
sbag0
(g1073
g2
Ntp1742
Rp1743
(dp1744
g1077
I7
sg1078
I15
sg1079
g1012
sg1081
g1292
sbag0
(g1073
g2
Ntp1745
Rp1746
(dp1747
g1077
I7
sg1078
I16
sg1079
g896
sg1081
g1292
sbag0
(g1073
g2
Ntp1748
Rp1749
(dp1750
g1077
I7
sg1078
I17
sg1079
g515
sg1081
g1292
sbag0
(g1073
g2
Ntp1751
Rp1752
(dp1753
g1077
I7
sg1078
I18
sg1079
g417
sg1081
g1292
sbag0
(g1073
g2
Ntp1754
Rp1755
(dp1756
g1077
I7
sg1078
I19
sg1079
g133
sg1081
g1292
sbag0
(g1073
g2
Ntp1757
Rp1758
(dp1759
g1077
I7
sg1078
I20
sg1079
g798
sg1081
g1292
sbag0
(g1073
g2
Ntp1760
Rp1761
(dp1762
g1077
I7
sg1078
I21
sg1079
g287
sg1081
g1292
sbag0
(g1073
g2
Ntp1763
Rp1764
(dp1765
g1077
I22
sg1078
I7
sg1079
g215
sg1081
g1333
sbag0
(g1073
g2
Ntp1766
Rp1767
(dp1768
g1077
I7
sg1078
I23
sg1079
(lp1769
sg1081
g1082
sbag0
(g1073
g2
Ntp1770
Rp1771
(dp1772
g1077
I7
sg1078
I24
sg1079
(lp1773
sg1081
g1082
sbaa(lp1774
g0
(g1073
g2
Ntp1775
Rp1776
(dp1777
g1077
I8
sg1078
I0
sg1079
(lp1778
sg1081
g1082
sbag0
(g1073
g2
Ntp1779
Rp1780
(dp1781
g1077
I8
sg1078
I1
sg1079
(lp1782
sg1081
g1082
sbag0
(g1073
g2
Ntp1783
Rp1784
(dp1785
g1077
I8
sg1078
I2
sg1079
(lp1786
sg1081
g1082
sbag0
(g1073
g2
Ntp1787
Rp1788
(dp1789
g1077
I3
sg1078
I8
sg1079
g458
sg1081
g1333
sbag0
(g1073
g2
Ntp1790
Rp1791
(dp1792
g1077
I8
sg1078
I4
sg1079
g20
sg1081
g1292
sbag0
(g1073
g2
Ntp1793
Rp1794
(dp1795
g1077
I5
sg1078
I8
sg1079
g76
sg1081
g1387
sbag0
(g1073
g2
Ntp1796
Rp1797
(dp1798
g1077
I6
sg1078
I8
sg1079
g372
sg1081
g1387
sbag0
(g1073
g2
Ntp1799
Rp1800
(dp1801
g1077
I8
sg1078
I7
sg1079
g700
sg1081
g1292
sbag0
(g1073
g2
Ntp1802
Rp1803
(dp1804
g1077
I8
sg1078
I8
sg1079
g1041
sg1081
g1333
sbag0
(g1073
g2
Ntp1805
Rp1806
(dp1807
g1077
I9
sg1078
I8
sg1079
g302
sg1081
g1333
sbag0
(g1073
g2
Ntp1808
Rp1809
(dp1810
g1077
I10
sg1078
I8
sg1079
g623
sg1081
g1317
sbag0
(g1073
g2
Ntp1811
Rp1812
(dp1813
g1077
I11
sg1078
I8
sg1079
g963
sg1081
g1333
sbag0
(g1073
g2
Ntp1814
Rp1815
(dp1816
g1077
I8
sg1078
I12
sg1079
g238
sg1081
g1292
sbag0
(g1073
g2
Ntp1817
Rp1818
(dp1819
g1077
I13
sg1078
I8
sg1079
g544
sg1081
g1333
sbag0
(g1073
g2
Ntp1820
Rp1821
(dp1822
g1077
I14
sg1078
I8
sg1079
g879
sg1081
g1317
sbag0
(g1073
g2
Ntp1823
Rp1824
(dp1825
g1077
I15
sg1078
I8
sg1079
g157
sg1081
g1317
sbag0
(g1073
g2
Ntp1826
Rp1827
(dp1828
g1077
I16
sg1078
I8
sg1079
g728
sg1081
S'Sklep'
p1829
sbag0
(g1073
g2
Ntp1830
Rp1831
(dp1832
g1077
I8
sg1078
I17
sg1079
g994
sg1081
g1292
sbag0
(g1073
g2
Ntp1833
Rp1834
(dp1835
g1077
I18
sg1078
I8
sg1079
g261
sg1081
g1387
sbag0
(g1073
g2
Ntp1836
Rp1837
(dp1838
g1077
I19
sg1078
I8
sg1079
g564
sg1081
g1333
sbag0
(g1073
g2
Ntp1839
Rp1840
(dp1841
g1077
I20
sg1078
I8
sg1079
g911
sg1081
g1333
sbag0
(g1073
g2
Ntp1842
Rp1843
(dp1844
g1077
I8
sg1078
I21
sg1079
g189
sg1081
g1292
sbag0
(g1073
g2
Ntp1845
Rp1846
(dp1847
g1077
I22
sg1078
I8
sg1079
g777
sg1081
g1333
sbag0
(g1073
g2
Ntp1848
Rp1849
(dp1850
g1077
I8
sg1078
I23
sg1079
(lp1851
sg1081
g1082
sbag0
(g1073
g2
Ntp1852
Rp1853
(dp1854
g1077
I8
sg1078
I24
sg1079
(lp1855
sg1081
g1082
sbaa(lp1856
g0
(g1073
g2
Ntp1857
Rp1858
(dp1859
g1077
I9
sg1078
I0
sg1079
(lp1860
sg1081
g1082
sbag0
(g1073
g2
Ntp1861
Rp1862
(dp1863
g1077
I9
sg1078
I1
sg1079
(lp1864
sg1081
g1082
sbag0
(g1073
g2
Ntp1865
Rp1866
(dp1867
g1077
I9
sg1078
I2
sg1079
(lp1868
sg1081
g1082
sbag0
(g1073
g2
Ntp1869
Rp1870
(dp1871
g1077
I3
sg1078
I9
sg1079
g186
sg1081
g1387
sbag0
(g1073
g2
Ntp1872
Rp1873
(dp1874
g1077
I9
sg1078
I4
sg1079
g311
sg1081
g1292
sbag0
(g1073
g2
Ntp1875
Rp1876
(dp1877
g1077
I5
sg1078
I9
sg1079
g1055
sg1081
g1387
sbag0
(g1073
g2
Ntp1878
Rp1879
(dp1880
g1077
I6
sg1078
I9
sg1079
g711
sg1081
g1333
sbag0
(g1073
g2
Ntp1881
Rp1882
(dp1883
g1077
I9
sg1078
I7
sg1079
g375
sg1081
g1292
sbag0
(g1073
g2
Ntp1884
Rp1885
(dp1886
g1077
I8
sg1078
I9
sg1079
g554
sg1081
g1333
sbag0
(g1073
g2
Ntp1887
Rp1888
(dp1889
g1077
I9
sg1078
I9
sg1079
(lp1890
sg1081
g1082
sbag0
(g1073
g2
Ntp1891
Rp1892
(dp1893
g1077
I9
sg1078
I10
sg1079
(lp1894
sg1081
g1082
sbag0
(g1073
g2
Ntp1895
Rp1896
(dp1897
g1077
I11
sg1078
I9
sg1079
g633
sg1081
g1387
sbag0
(g1073
g2
Ntp1898
Rp1899
(dp1900
g1077
I9
sg1078
I12
sg1079
g794
sg1081
g1292
sbag0
(g1073
g2
Ntp1901
Rp1902
(dp1903
g1077
I13
sg1078
I9
sg1079
g455
sg1081
g1333
sbag0
(g1073
g2
Ntp1904
Rp1905
(dp1906
g1077
I9
sg1078
I14
sg1079
(lp1907
sg1081
g1082
sbag0
(g1073
g2
Ntp1908
Rp1909
(dp1910
g1077
I9
sg1078
I15
sg1079
(lp1911
sg1081
g1082
sbag0
(g1073
g2
Ntp1912
Rp1913
(dp1914
g1077
I16
sg1078
I9
sg1079
g196
sg1081
g1333
sbag0
(g1073
g2
Ntp1915
Rp1916
(dp1917
g1077
I9
sg1078
I17
sg1079
g921
sg1081
g1292
sbag0
(g1073
g2
Ntp1918
Rp1919
(dp1920
g1077
I18
sg1078
I9
sg1079
g578
sg1081
g1333
sbag0
(g1073
g2
Ntp1921
Rp1922
(dp1923
g1077
I9
sg1078
I19
sg1079
g271
sg1081
g1292
sbag0
(g1073
g2
Ntp1924
Rp1925
(dp1926
g1077
I20
sg1078
I9
sg1079
g394
sg1081
g1387
sbag0
(g1073
g2
Ntp1927
Rp1928
(dp1929
g1077
I9
sg1078
I21
sg1079
g111
sg1081
g1292
sbag0
(g1073
g2
Ntp1930
Rp1931
(dp1932
g1077
I22
sg1078
I9
sg1079
g830
sg1081
g1317
sbag0
(g1073
g2
Ntp1933
Rp1934
(dp1935
g1077
I9
sg1078
I23
sg1079
(lp1936
sg1081
g1082
sbag0
(g1073
g2
Ntp1937
Rp1938
(dp1939
g1077
I9
sg1078
I24
sg1079
(lp1940
sg1081
g1082
sbaa(lp1941
g0
(g1073
g2
Ntp1942
Rp1943
(dp1944
g1077
I10
sg1078
I0
sg1079
(lp1945
sg1081
g1082
sbag0
(g1073
g2
Ntp1946
Rp1947
(dp1948
g1077
I10
sg1078
I1
sg1079
(lp1949
sg1081
g1082
sbag0
(g1073
g2
Ntp1950
Rp1951
(dp1952
g1077
I10
sg1078
I2
sg1079
(lp1953
sg1081
g1082
sbag0
(g1073
g2
Ntp1954
Rp1955
(dp1956
g1077
I3
sg1078
I10
sg1079
g322
sg1081
S'Fabryka'
p1957
sbag0
(g1073
g2
Ntp1958
Rp1959
(dp1960
g1077
I10
sg1078
I4
sg1079
g846
sg1081
g1292
sbag0
(g1073
g2
Ntp1961
Rp1962
(dp1963
g1077
I5
sg1078
I10
sg1079
g725
sg1081
g1387
sbag0
(g1073
g2
Ntp1964
Rp1965
(dp1966
g1077
I6
sg1078
I10
sg1079
g827
sg1081
g1333
sbag0
(g1073
g2
Ntp1967
Rp1968
(dp1969
g1077
I10
sg1078
I7
sg1079
g107
sg1081
g1292
sbag0
(g1073
g2
Ntp1970
Rp1971
(dp1972
g1077
I8
sg1078
I10
sg1079
g89
sg1081
g1333
sbag0
(g1073
g2
Ntp1973
Rp1974
(dp1975
g1077
I10
sg1078
I9
sg1079
(lp1976
sg1081
g1082
sbag0
(g1073
g2
Ntp1977
Rp1978
(dp1979
g1077
I10
sg1078
I10
sg1079
(lp1980
sg1081
g1082
sbag0
(g1073
g2
Ntp1981
Rp1982
(dp1983
g1077
I11
sg1078
I10
sg1079
g810
sg1081
g1333
sbag0
(g1073
g2
Ntp1984
Rp1985
(dp1986
g1077
I10
sg1078
I12
sg1079
g907
sg1081
g1292
sbag0
(g1073
g2
Ntp1987
Rp1988
(dp1989
g1077
I13
sg1078
I10
sg1079
g183
sg1081
g1333
sbag0
(g1073
g2
Ntp1990
Rp1991
(dp1992
g1077
I10
sg1078
I14
sg1079
(lp1993
sg1081
g1082
sbag0
(g1073
g2
Ntp1994
Rp1995
(dp1996
g1077
I10
sg1078
I15
sg1079
(lp1997
sg1081
g1082
sbag0
(g1073
g2
Ntp1998
Rp1999
(dp2000
g1077
I16
sg1078
I10
sg1079
g743
sg1081
g1387
sbag0
(g1073
g2
Ntp2001
Rp2002
(dp2003
g1077
I10
sg1078
I17
sg1079
g27
sg1081
g1292
sbag0
(g1073
g2
Ntp2004
Rp2005
(dp2006
g1077
I18
sg1078
I10
sg1079
g130
sg1081
g1333
sbag0
(g1073
g2
Ntp2007
Rp2008
(dp2009
g1077
I10
sg1078
I19
sg1079
g413
sg1081
g1292
sbag0
(g1073
g2
Ntp2010
Rp2011
(dp2012
g1077
I20
sg1078
I10
sg1079
g512
sg1081
g1333
sbag0
(g1073
g2
Ntp2013
Rp2014
(dp2015
g1077
I10
sg1078
I21
sg1079
g1008
sg1081
g1292
sbag0
(g1073
g2
Ntp2016
Rp2017
(dp2018
g1077
I22
sg1078
I10
sg1079
g235
sg1081
g1317
sbag0
(g1073
g2
Ntp2019
Rp2020
(dp2021
g1077
I10
sg1078
I23
sg1079
(lp2022
sg1081
g1082
sbag0
(g1073
g2
Ntp2023
Rp2024
(dp2025
g1077
I10
sg1078
I24
sg1079
(lp2026
sg1081
g1082
sbaa(lp2027
g0
(g1073
g2
Ntp2028
Rp2029
(dp2030
g1077
I11
sg1078
I0
sg1079
(lp2031
sg1081
g1082
sbag0
(g1073
g2
Ntp2032
Rp2033
(dp2034
g1077
I11
sg1078
I1
sg1079
(lp2035
sg1081
g1082
sbag0
(g1073
g2
Ntp2036
Rp2037
(dp2038
g1077
I11
sg1078
I2
sg1079
(lp2039
sg1081
g1082
sbag0
(g1073
g2
Ntp2040
Rp2041
(dp2042
g1077
I3
sg1078
I11
sg1079
g489
sg1081
g1333
sbag0
(g1073
g2
Ntp2043
Rp2044
(dp2045
g1077
I11
sg1078
I4
sg1079
g386
sg1081
g1292
sbag0
(g1073
g2
Ntp2046
Rp2047
(dp2048
g1077
I5
sg1078
I11
sg1079
g104
sg1081
g1387
sbag0
(g1073
g2
Ntp2049
Rp2050
(dp2051
g1077
I6
sg1078
I11
sg1079
g1065
sg1081
g1333
sbag0
(g1073
g2
Ntp2052
Rp2053
(dp2054
g1077
I11
sg1078
I7
sg1079
g721
sg1081
g1292
sbag0
(g1073
g2
Ntp2055
Rp2056
(dp2057
g1077
I8
sg1078
I11
sg1079
g308
sg1081
g1387
sbag0
(g1073
g2
Ntp2058
Rp2059
(dp2060
g1077
I11
sg1078
I9
sg1079
(lp2061
sg1081
g1082
sbag0
(g1073
g2
Ntp2062
Rp2063
(dp2064
g1077
I11
sg1078
I10
sg1079
(lp2065
sg1081
g1082
sbag0
(g1073
g2
Ntp2066
Rp2067
(dp2068
g1077
I11
sg1078
I11
sg1079
g86
sg1081
g1387
sbag0
(g1073
g2
Ntp2069
Rp2070
(dp2071
g1077
I11
sg1078
I12
sg1079
g617
sg1081
g1292
sbag0
(g1073
g2
Ntp2072
Rp2073
(dp2074
g1077
I13
sg1078
I11
sg1079
g651
sg1081
g1317
sbag0
(g1073
g2
Ntp2075
Rp2076
(dp2077
g1077
I11
sg1078
I14
sg1079
(lp2078
sg1081
g1082
sbag0
(g1073
g2
Ntp2079
Rp2080
(dp2081
g1077
I11
sg1078
I15
sg1079
(lp2082
sg1081
g1082
sbag0
(g1073
g2
Ntp2083
Rp2084
(dp2085
g1077
I16
sg1078
I11
sg1079
g284
sg1081
g1333
sbag0
(g1073
g2
Ntp2086
Rp2087
(dp2088
g1077
I11
sg1078
I17
sg1079
g1022
sg1081
g1292
sbag0
(g1073
g2
Ntp2089
Rp2090
(dp2091
g1077
I18
sg1078
I11
sg1079
g938
sg1081
g1333
sbag0
(g1073
g2
Ntp2092
Rp2093
(dp2094
g1077
I11
sg1078
I19
sg1079
g590
sg1081
g1292
sbag0
(g1073
g2
Ntp2095
Rp2096
(dp2097
g1077
I20
sg1078
I11
sg1079
g509
sg1081
g1333
sbag0
(g1073
g2
Ntp2098
Rp2099
(dp2100
g1077
I11
sg1078
I21
sg1079
g211
sg1081
g1292
sbag0
(g1073
g2
Ntp2101
Rp2102
(dp2103
g1077
I22
sg1078
I11
sg1079
g127
sg1081
g1333
sbag0
(g1073
g2
Ntp2104
Rp2105
(dp2106
g1077
I11
sg1078
I23
sg1079
(lp2107
sg1081
g1082
sbag0
(g1073
g2
Ntp2108
Rp2109
(dp2110
g1077
I11
sg1078
I24
sg1079
(lp2111
sg1081
g1082
sbaa(lp2112
g0
(g1073
g2
Ntp2113
Rp2114
(dp2115
g1077
I12
sg1078
I0
sg1079
(lp2116
sg1081
g1082
sbag0
(g1073
g2
Ntp2117
Rp2118
(dp2119
g1077
I12
sg1078
I1
sg1079
(lp2120
sg1081
g1082
sbag0
(g1073
g2
Ntp2121
Rp2122
(dp2123
g1077
I12
sg1078
I2
sg1079
(lp2124
sg1081
g1082
sbag0
(g1073
g2
Ntp2125
Rp2126
(dp2127
g1077
I3
sg1078
I12
sg1079
g648
sg1081
g1333
sbag0
(g1073
g2
Ntp2128
Rp2129
(dp2130
g1077
I12
sg1078
I4
sg1079
g505
sg1081
g1292
sbag0
(g1073
g2
Ntp2131
Rp2132
(dp2133
g1077
I5
sg1078
I12
sg1079
g843
sg1081
g1333
sbag0
(g1073
g2
Ntp2134
Rp2135
(dp2136
g1077
I6
sg1078
I12
sg1079
g124
sg1081
g1387
sbag0
(g1073
g2
Ntp2137
Rp2138
(dp2139
g1077
I12
sg1078
I7
sg1079
g406
sg1081
g1292
sbag0
(g1073
g2
Ntp2140
Rp2141
(dp2142
g1077
I8
sg1078
I12
sg1079
g281
sg1081
g1317
sbag0
(g1073
g2
Ntp2143
Rp2144
(dp2145
g1077
I9
sg1078
I12
sg1079
g587
sg1081
g1317
sbag0
(g1073
g2
Ntp2146
Rp2147
(dp2148
g1077
I10
sg1078
I12
sg1079
g935
sg1081
g1387
sbag0
(g1073
g2
Ntp2149
Rp2150
(dp2151
g1077
I11
sg1078
I12
sg1079
g208
sg1081
g1317
sbag0
(g1073
g2
Ntp2152
Rp2153
(dp2154
g1077
I12
sg1078
I12
sg1079
g47
sg1081
g1333
sbag0
(g1073
g2
Ntp2155
Rp2156
(dp2157
g1077
I13
sg1078
I12
sg1079
g346
sg1081
g1387
sbag0
(g1073
g2
Ntp2158
Rp2159
(dp2160
g1077
I14
sg1078
I12
sg1079
g663
sg1081
g1387
sbag0
(g1073
g2
Ntp2161
Rp2162
(dp2163
g1077
I15
sg1078
I12
sg1079
g1019
sg1081
g1387
sbag0
(g1073
g2
Ntp2164
Rp2165
(dp2166
g1077
I16
sg1078
I12
sg1079
g861
sg1081
g1387
sbag0
(g1073
g2
Ntp2167
Rp2168
(dp2169
g1077
I12
sg1078
I17
sg1079
g142
sg1081
g1292
sbag0
(g1073
g2
Ntp2170
Rp2171
(dp2172
g1077
I18
sg1078
I12
sg1079
g427
sg1081
g1333
sbag0
(g1073
g2
Ntp2173
Rp2174
(dp2175
g1077
I12
sg1078
I19
sg1079
g755
sg1081
g1292
sbag0
(g1073
g2
Ntp2176
Rp2177
(dp2178
g1077
I20
sg1078
I12
sg1079
g604
sg1081
g1333
sbag0
(g1073
g2
Ntp2179
Rp2180
(dp2181
g1077
I12
sg1078
I21
sg1079
g952
sg1081
g1292
sbag0
(g1073
g2
Ntp2182
Rp2183
(dp2184
g1077
I22
sg1078
I12
sg1079
g222
sg1081
g1333
sbag0
(g1073
g2
Ntp2185
Rp2186
(dp2187
g1077
I12
sg1078
I23
sg1079
(lp2188
sg1081
g1082
sbag0
(g1073
g2
Ntp2189
Rp2190
(dp2191
g1077
I12
sg1078
I24
sg1079
(lp2192
sg1081
g1082
sbaa(lp2193
g0
(g1073
g2
Ntp2194
Rp2195
(dp2196
g1077
I13
sg1078
I0
sg1079
(lp2197
sg1081
g1082
sbag0
(g1073
g2
Ntp2198
Rp2199
(dp2200
g1077
I13
sg1078
I1
sg1079
(lp2201
sg1081
g1082
sbag0
(g1073
g2
Ntp2202
Rp2203
(dp2204
g1077
I13
sg1078
I2
sg1079
(lp2205
sg1081
g1082
sbag0
(g1073
g2
Ntp2206
Rp2207
(dp2208
g1077
I3
sg1078
I13
sg1079
g343
sg1081
g1333
sbag0
(g1073
g2
Ntp2209
Rp2210
(dp2211
g1077
I13
sg1078
I4
sg1079
g43
sg1081
g1292
sbag0
(g1073
g2
Ntp2212
Rp2213
(dp2214
g1077
I5
sg1078
I13
sg1079
g752
sg1081
g1387
sbag0
(g1073
g2
Ntp2215
Rp2216
(dp2217
g1077
I13
sg1078
I6
sg1079
g424
sg1081
g1292
sbag0
(g1073
g2
Ntp2218
Rp2219
(dp2220
g1077
I13
sg1078
I7
sg1079
g137
sg1081
g1292
sbag0
(g1073
g2
Ntp2221
Rp2222
(dp2223
g1077
I13
sg1078
I8
sg1079
g857
sg1081
g1292
sbag0
(g1073
g2
Ntp2224
Rp2225
(dp2226
g1077
I13
sg1078
I9
sg1079
g523
sg1081
g1292
sbag0
(g1073
g2
Ntp2227
Rp2228
(dp2229
g1077
I13
sg1078
I10
sg1079
g218
sg1081
g1292
sbag0
(g1073
g2
Ntp2230
Rp2231
(dp2232
g1077
I13
sg1078
I11
sg1079
g948
sg1081
g1292
sbag0
(g1073
g2
Ntp2233
Rp2234
(dp2235
g1077
I13
sg1078
I12
sg1079
g600
sg1081
g1292
sbag0
(g1073
g2
Ntp2236
Rp2237
(dp2238
g1077
I13
sg1078
I13
sg1079
g291
sg1081
g1292
sbag0
(g1073
g2
Ntp2239
Rp2240
(dp2241
g1077
I13
sg1078
I14
sg1079
g1030
sg1081
g1292
sbag0
(g1073
g2
Ntp2242
Rp2243
(dp2244
g1077
I13
sg1078
I15
sg1079
g669
sg1081
g1292
sbag0
(g1073
g2
Ntp2245
Rp2246
(dp2247
g1077
I13
sg1078
I16
sg1079
g349
sg1081
g1292
sbag0
(g1073
g2
Ntp2248
Rp2249
(dp2250
g1077
I13
sg1078
I17
sg1079
g56
sg1081
g1292
sbag0
(g1073
g2
Ntp2251
Rp2252
(dp2253
g1077
I13
sg1078
I18
sg1079
g473
sg1081
g1292
sbag0
(g1073
g2
Ntp2254
Rp2255
(dp2256
g1077
I13
sg1078
I19
sg1079
g437
sg1081
g1292
sbag0
(g1073
g2
Ntp2257
Rp2258
(dp2259
g1077
I20
sg1078
I13
sg1079
g150
sg1081
g1333
sbag0
(g1073
g2
Ntp2260
Rp2261
(dp2262
g1077
I13
sg1078
I21
sg1079
g872
sg1081
g1292
sbag0
(g1073
g2
Ntp2263
Rp2264
(dp2265
g1077
I22
sg1078
I13
sg1079
g534
sg1081
g1829
sbag0
(g1073
g2
Ntp2266
Rp2267
(dp2268
g1077
I13
sg1078
I23
sg1079
(lp2269
sg1081
g1082
sbag0
(g1073
g2
Ntp2270
Rp2271
(dp2272
g1077
I13
sg1078
I24
sg1079
(lp2273
sg1081
g1082
sbaa(lp2274
g0
(g1073
g2
Ntp2275
Rp2276
(dp2277
g1077
I14
sg1078
I0
sg1079
(lp2278
sg1081
g1082
sbag0
(g1073
g2
Ntp2279
Rp2280
(dp2281
g1077
I14
sg1078
I1
sg1079
(lp2282
sg1081
g1082
sbag0
(g1073
g2
Ntp2283
Rp2284
(dp2285
g1077
I14
sg1078
I2
sg1079
(lp2286
sg1081
g1082
sbag0
(g1073
g2
Ntp2287
Rp2288
(dp2289
g1077
I3
sg1078
I14
sg1079
g520
sg1081
g1387
sbag0
(g1073
g2
Ntp2290
Rp2291
(dp2292
g1077
I14
sg1078
I4
sg1079
g39
sg1081
g1292
sbag0
(g1073
g2
Ntp2293
Rp2294
(dp2295
g1077
I5
sg1078
I14
sg1079
g340
sg1081
g1387
sbag0
(g1073
g2
Ntp2296
Rp2297
(dp2298
g1077
I6
sg1078
I14
sg1079
g421
sg1081
g1829
sbag0
(g1073
g2
Ntp2299
Rp2300
(dp2301
g1077
I7
sg1078
I14
sg1079
g749
sg1081
g1333
sbag0
(g1073
g2
Ntp2302
Rp2303
(dp2304
g1077
I8
sg1078
I14
sg1079
g492
sg1081
g1317
sbag0
(g1073
g2
Ntp2305
Rp2306
(dp2307
g1077
I9
sg1078
I14
sg1079
g584
sg1081
g1317
sbag0
(g1073
g2
Ntp2308
Rp2309
(dp2310
g1077
I10
sg1078
I14
sg1079
g850
sg1081
g1593
sbag0
(g1073
g2
Ntp2311
Rp2312
(dp2313
g1077
I11
sg1078
I14
sg1079
g1016
sg1081
g1317
sbag0
(g1073
g2
Ntp2314
Rp2315
(dp2316
g1077
I12
sg1078
I14
sg1079
g893
sg1081
g1333
sbag0
(g1073
g2
Ntp2317
Rp2318
(dp2319
g1077
I13
sg1078
I14
sg1079
g837
sg1081
g1333
sbag0
(g1073
g2
Ntp2320
Rp2321
(dp2322
g1077
I14
sg1078
I14
sg1079
g929
sg1081
g1333
sbag0
(g1073
g2
Ntp2323
Rp2324
(dp2325
g1077
I15
sg1078
I14
sg1079
g202
sg1081
g1333
sbag0
(g1073
g2
Ntp2326
Rp2327
(dp2328
g1077
I16
sg1078
I14
sg1079
g734
sg1081
g1333
sbag0
(g1073
g2
Ntp2329
Rp2330
(dp2331
g1077
I17
sg1078
I14
sg1079
g50
sg1081
g1333
sbag0
(g1073
g2
Ntp2332
Rp2333
(dp2334
g1077
I14
sg1078
I18
sg1079
g254
sg1081
g1292
sbag0
(g1073
g2
Ntp2335
Rp2336
(dp2337
g1077
I19
sg1078
I14
sg1079
g400
sg1081
g1333
sbag0
(g1073
g2
Ntp2338
Rp2339
(dp2340
g1077
I20
sg1078
I14
sg1079
g998
sg1081
g1317
sbag0
(g1073
g2
Ntp2341
Rp2342
(dp2343
g1077
I14
sg1078
I21
sg1079
g390
sg1081
g1292
sbag0
(g1073
g2
Ntp2344
Rp2345
(dp2346
g1077
I22
sg1078
I14
sg1079
g941
sg1081
g1333
sbag0
(g1073
g2
Ntp2347
Rp2348
(dp2349
g1077
I14
sg1078
I23
sg1079
(lp2350
sg1081
g1082
sbag0
(g1073
g2
Ntp2351
Rp2352
(dp2353
g1077
I14
sg1078
I24
sg1079
(lp2354
sg1081
g1082
sbaa(lp2355
g0
(g1073
g2
Ntp2356
Rp2357
(dp2358
g1077
I15
sg1078
I0
sg1079
(lp2359
sg1081
g1082
sbag0
(g1073
g2
Ntp2360
Rp2361
(dp2362
g1077
I15
sg1078
I1
sg1079
(lp2363
sg1081
g1082
sbag0
(g1073
g2
Ntp2364
Rp2365
(dp2366
g1077
I15
sg1078
I2
sg1079
(lp2367
sg1081
g1082
sbag0
(g1073
g2
Ntp2368
Rp2369
(dp2370
g1077
I3
sg1078
I15
sg1079
g666
sg1081
g1387
sbag0
(g1073
g2
Ntp2371
Rp2372
(dp2373
g1077
I15
sg1078
I4
sg1079
g146
sg1081
g1292
sbag0
(g1073
g2
Ntp2374
Rp2375
(dp2376
g1077
I15
sg1078
I5
sg1079
g868
sg1081
g1292
sbag0
(g1073
g2
Ntp2377
Rp2378
(dp2379
g1077
I15
sg1078
I6
sg1079
g766
sg1081
g1292
sbag0
(g1073
g2
Ntp2380
Rp2381
(dp2382
g1077
I15
sg1078
I7
sg1079
g433
sg1081
g1292
sbag0
(g1073
g2
Ntp2383
Rp2384
(dp2385
g1077
I15
sg1078
I8
sg1079
g780
sg1081
g1292
sbag0
(g1073
g2
Ntp2386
Rp2387
(dp2388
g1077
I15
sg1078
I9
sg1079
g966
sg1081
g1292
sbag0
(g1073
g2
Ntp2389
Rp2390
(dp2391
g1077
I15
sg1078
I10
sg1079
g1051
sg1081
g1292
sbag0
(g1073
g2
Ntp2392
Rp2393
(dp2394
g1077
I15
sg1078
I11
sg1079
g1026
sg1081
g1292
sbag0
(g1073
g2
Ntp2395
Rp2396
(dp2397
g1077
I15
sg1078
I12
sg1079
g626
sg1081
g1292
sbag0
(g1073
g2
Ntp2398
Rp2399
(dp2400
g1077
I15
sg1078
I13
sg1079
g567
sg1081
g1292
sbag0
(g1073
g2
Ntp2401
Rp2402
(dp2403
g1077
I15
sg1078
I14
sg1079
g79
sg1081
g1292
sbag0
(g1073
g2
Ntp2404
Rp2405
(dp2406
g1077
I15
sg1078
I15
sg1079
g246
sg1081
g1292
sbag0
(g1073
g2
Ntp2407
Rp2408
(dp2409
g1077
I15
sg1078
I16
sg1079
g917
sg1081
g1292
sbag0
(g1073
g2
Ntp2410
Rp2411
(dp2412
g1077
I17
sg1078
I15
sg1079
g611
sg1081
g1333
sbag0
(g1073
g2
Ntp2413
Rp2414
(dp2415
g1077
I15
sg1078
I18
sg1079
g925
sg1081
g1292
sbag0
(g1073
g2
Ntp2416
Rp2417
(dp2418
g1077
I19
sg1078
I15
sg1079
g581
sg1081
g1387
sbag0
(g1073
g2
Ntp2419
Rp2420
(dp2421
g1077
I20
sg1078
I15
sg1079
g813
sg1081
g1333
sbag0
(g1073
g2
Ntp2422
Rp2423
(dp2424
g1077
I15
sg1078
I21
sg1079
g527
sg1081
g1292
sbag0
(g1073
g2
Ntp2425
Rp2426
(dp2427
g1077
I22
sg1078
I15
sg1079
g657
sg1081
g1387
sbag0
(g1073
g2
Ntp2428
Rp2429
(dp2430
g1077
I15
sg1078
I23
sg1079
(lp2431
sg1081
g1082
sbag0
(g1073
g2
Ntp2432
Rp2433
(dp2434
g1077
I15
sg1078
I24
sg1079
(lp2435
sg1081
g1082
sbaa(lp2436
g0
(g1073
g2
Ntp2437
Rp2438
(dp2439
g1077
I16
sg1078
I0
sg1079
(lp2440
sg1081
g1082
sbag0
(g1073
g2
Ntp2441
Rp2442
(dp2443
g1077
I16
sg1078
I1
sg1079
(lp2444
sg1081
g1082
sbag0
(g1073
g2
Ntp2445
Rp2446
(dp2447
g1077
I16
sg1078
I2
sg1079
(lp2448
sg1081
g1082
sbag0
(g1073
g2
Ntp2449
Rp2450
(dp2451
g1077
I16
sg1078
I3
sg1079
(lp2452
sg1081
g1082
sbag0
(g1073
g2
Ntp2453
Rp2454
(dp2455
g1077
I4
sg1078
I16
sg1079
g397
sg1081
g1317
sbag0
(g1073
g2
Ntp2456
Rp2457
(dp2458
g1077
I5
sg1078
I16
sg1079
g731
sg1081
g1333
sbag0
(g1073
g2
Ntp2459
Rp2460
(dp2461
g1077
I6
sg1078
I16
sg1079
g31
sg1081
g1333
sbag0
(g1073
g2
Ntp2462
Rp2463
(dp2464
g1077
I7
sg1078
I16
sg1079
g328
sg1081
g1333
sbag0
(g1073
g2
Ntp2465
Rp2466
(dp2467
g1077
I8
sg1078
I16
sg1079
g746
sg1081
g1387
sbag0
(g1073
g2
Ntp2468
Rp2469
(dp2470
g1077
I9
sg1078
I16
sg1079
g645
sg1081
g1333
sbag0
(g1073
g2
Ntp2471
Rp2472
(dp2473
g1077
I10
sg1078
I16
sg1079
g337
sg1081
g1333
sbag0
(g1073
g2
Ntp2474
Rp2475
(dp2476
g1077
I11
sg1078
I16
sg1079
g970
sg1081
g1333
sbag0
(g1073
g2
Ntp2477
Rp2478
(dp2479
g1077
I12
sg1078
I16
sg1079
g639
sg1081
g1333
sbag0
(g1073
g2
Ntp2480
Rp2481
(dp2482
g1077
I13
sg1078
I16
sg1079
g478
sg1081
g1333
sbag0
(g1073
g2
Ntp2483
Rp2484
(dp2485
g1077
I14
sg1078
I16
sg1079
g759
sg1081
g1317
sbag0
(g1073
g2
Ntp2486
Rp2487
(dp2488
g1077
I15
sg1078
I16
sg1079
g1048
sg1081
g1333
sbag0
(g1073
g2
Ntp2489
Rp2490
(dp2491
g1077
I16
sg1078
I16
sg1079
g987
sg1081
g1292
sbag0
(g1073
g2
Ntp2492
Rp2493
(dp2494
g1077
I17
sg1078
I16
sg1079
g597
sg1081
g1333
sbag0
(g1073
g2
Ntp2495
Rp2496
(dp2497
g1077
I16
sg1078
I18
sg1079
g944
sg1081
g1292
sbag0
(g1073
g2
Ntp2498
Rp2499
(dp2500
g1077
I16
sg1078
I19
sg1079
g770
sg1081
g1292
sbag0
(g1073
g2
Ntp2501
Rp2502
(dp2503
g1077
I20
sg1078
I16
sg1079
g1068
sg1081
g1333
sbag0
(g1073
g2
Ntp2504
Rp2505
(dp2506
g1077
I16
sg1078
I21
sg1079
g853
sg1081
g1292
sbag0
(g1073
g2
Ntp2507
Rp2508
(dp2509
g1077
I22
sg1078
I16
sg1079
g614
sg1081
g1387
sbag0
(g1073
g2
Ntp2510
Rp2511
(dp2512
g1077
I16
sg1078
I23
sg1079
(lp2513
sg1081
g1082
sbag0
(g1073
g2
Ntp2514
Rp2515
(dp2516
g1077
I16
sg1078
I24
sg1079
(lp2517
sg1081
g1082
sbaa(lp2518
g0
(g1073
g2
Ntp2519
Rp2520
(dp2521
g1077
I17
sg1078
I0
sg1079
(lp2522
sg1081
g1082
sbag0
(g1073
g2
Ntp2523
Rp2524
(dp2525
g1077
I17
sg1078
I1
sg1079
(lp2526
sg1081
g1082
sbag0
(g1073
g2
Ntp2527
Rp2528
(dp2529
g1077
I17
sg1078
I2
sg1079
(lp2530
sg1081
g1082
sbag0
(g1073
g2
Ntp2531
Rp2532
(dp2533
g1077
I17
sg1078
I3
sg1079
(lp2534
sg1081
g1082
sbag0
(g1073
g2
Ntp2535
Rp2536
(dp2537
g1077
I17
sg1078
I4
sg1079
(lp2538
sg1081
g1082
sbag0
(g1073
g2
Ntp2539
Rp2540
(dp2541
g1077
I17
sg1078
I5
sg1079
(lp2542
sg1081
g1082
sbag0
(g1073
g2
Ntp2543
Rp2544
(dp2545
g1077
I17
sg1078
I6
sg1079
(lp2546
sg1081
g1082
sbag0
(g1073
g2
Ntp2547
Rp2548
(dp2549
g1077
I17
sg1078
I7
sg1079
(lp2550
sg1081
g1082
sbag0
(g1073
g2
Ntp2551
Rp2552
(dp2553
g1077
I17
sg1078
I8
sg1079
(lp2554
sg1081
g1082
sbag0
(g1073
g2
Ntp2555
Rp2556
(dp2557
g1077
I17
sg1078
I9
sg1079
(lp2558
sg1081
g1082
sbag0
(g1073
g2
Ntp2559
Rp2560
(dp2561
g1077
I17
sg1078
I10
sg1079
(lp2562
sg1081
g1082
sbag0
(g1073
g2
Ntp2563
Rp2564
(dp2565
g1077
I17
sg1078
I11
sg1079
(lp2566
sg1081
g1082
sbag0
(g1073
g2
Ntp2567
Rp2568
(dp2569
g1077
I17
sg1078
I12
sg1079
(lp2570
sg1081
g1082
sbag0
(g1073
g2
Ntp2571
Rp2572
(dp2573
g1077
I17
sg1078
I13
sg1079
(lp2574
sg1081
g1082
sbag0
(g1073
g2
Ntp2575
Rp2576
(dp2577
g1077
I17
sg1078
I14
sg1079
(lp2578
sg1081
g1082
sbag0
(g1073
g2
Ntp2579
Rp2580
(dp2581
g1077
I15
sg1078
I17
sg1079
g594
sg1081
g1387
sbag0
(g1073
g2
Ntp2582
Rp2583
(dp2584
g1077
I17
sg1078
I16
sg1079
g864
sg1081
g1292
sbag0
(g1073
g2
Ntp2585
Rp2586
(dp2587
g1077
I17
sg1078
I17
sg1079
g531
sg1081
g1387
sbag0
(g1073
g2
Ntp2588
Rp2589
(dp2590
g1077
I18
sg1078
I17
sg1079
g232
sg1081
g1333
sbag0
(g1073
g2
Ntp2591
Rp2592
(dp2593
g1077
I19
sg1078
I17
sg1079
g960
sg1081
g1333
sbag0
(g1073
g2
Ntp2594
Rp2595
(dp2596
g1077
I20
sg1078
I17
sg1079
g53
sg1081
g1317
sbag0
(g1073
g2
Ntp2597
Rp2598
(dp2599
g1077
I17
sg1078
I21
sg1079
g762
sg1081
g1292
sbag0
(g1073
g2
Ntp2600
Rp2601
(dp2602
g1077
I22
sg1078
I17
sg1079
g430
sg1081
g1387
sbag0
(g1073
g2
Ntp2603
Rp2604
(dp2605
g1077
I17
sg1078
I23
sg1079
(lp2606
sg1081
g1082
sbag0
(g1073
g2
Ntp2607
Rp2608
(dp2609
g1077
I17
sg1078
I24
sg1079
(lp2610
sg1081
g1082
sbaa(lp2611
g0
(g1073
g2
Ntp2612
Rp2613
(dp2614
g1077
I18
sg1078
I0
sg1079
(lp2615
sg1081
g1082
sbag0
(g1073
g2
Ntp2616
Rp2617
(dp2618
g1077
I18
sg1078
I1
sg1079
(lp2619
sg1081
g1082
sbag0
(g1073
g2
Ntp2620
Rp2621
(dp2622
g1077
I18
sg1078
I2
sg1079
(lp2623
sg1081
g1082
sbag0
(g1073
g2
Ntp2624
Rp2625
(dp2626
g1077
I18
sg1078
I3
sg1079
(lp2627
sg1081
g1082
sbag0
(g1073
g2
Ntp2628
Rp2629
(dp2630
g1077
I18
sg1078
I4
sg1079
(lp2631
sg1081
g1082
sbag0
(g1073
g2
Ntp2632
Rp2633
(dp2634
g1077
I18
sg1078
I5
sg1079
(lp2635
sg1081
g1082
sbag0
(g1073
g2
Ntp2636
Rp2637
(dp2638
g1077
I18
sg1078
I6
sg1079
(lp2639
sg1081
g1082
sbag0
(g1073
g2
Ntp2640
Rp2641
(dp2642
g1077
I18
sg1078
I7
sg1079
(lp2643
sg1081
g1082
sbag0
(g1073
g2
Ntp2644
Rp2645
(dp2646
g1077
I18
sg1078
I8
sg1079
(lp2647
sg1081
g1082
sbag0
(g1073
g2
Ntp2648
Rp2649
(dp2650
g1077
I18
sg1078
I9
sg1079
(lp2651
sg1081
g1082
sbag0
(g1073
g2
Ntp2652
Rp2653
(dp2654
g1077
I18
sg1078
I10
sg1079
(lp2655
sg1081
g1082
sbag0
(g1073
g2
Ntp2656
Rp2657
(dp2658
g1077
I18
sg1078
I11
sg1079
(lp2659
sg1081
g1082
sbag0
(g1073
g2
Ntp2660
Rp2661
(dp2662
g1077
I18
sg1078
I12
sg1079
(lp2663
sg1081
g1082
sbag0
(g1073
g2
Ntp2664
Rp2665
(dp2666
g1077
I18
sg1078
I13
sg1079
(lp2667
sg1081
g1082
sbag0
(g1073
g2
Ntp2668
Rp2669
(dp2670
g1077
I18
sg1078
I14
sg1079
(lp2671
sg1081
g1082
sbag0
(g1073
g2
Ntp2672
Rp2673
(dp2674
g1077
I15
sg1078
I18
sg1079
g299
sg1081
g1333
sbag0
(g1073
g2
Ntp2675
Rp2676
(dp2677
g1077
I18
sg1078
I16
sg1079
g353
sg1081
g1292
sbag0
(g1073
g2
Ntp2678
Rp2679
(dp2680
g1077
I18
sg1078
I17
sg1079
g680
sg1081
g1292
sbag0
(g1073
g2
Ntp2681
Rp2682
(dp2683
g1077
I18
sg1078
I18
sg1079
g368
sg1081
g1292
sbag0
(g1073
g2
Ntp2684
Rp2685
(dp2686
g1077
I18
sg1078
I19
sg1079
g65
sg1081
g1292
sbag0
(g1073
g2
Ntp2687
Rp2688
(dp2689
g1077
I18
sg1078
I20
sg1079
g153
sg1081
g1292
sbag0
(g1073
g2
Ntp2690
Rp2691
(dp2692
g1077
I18
sg1078
I21
sg1079
g441
sg1081
g1292
sbag0
(g1073
g2
Ntp2693
Rp2694
(dp2695
g1077
I22
sg1078
I18
sg1079
g541
sg1081
g1333
sbag0
(g1073
g2
Ntp2696
Rp2697
(dp2698
g1077
I18
sg1078
I23
sg1079
(lp2699
sg1081
g1082
sbag0
(g1073
g2
Ntp2700
Rp2701
(dp2702
g1077
I18
sg1078
I24
sg1079
(lp2703
sg1081
g1082
sbaa(lp2704
g0
(g1073
g2
Ntp2705
Rp2706
(dp2707
g1077
I19
sg1078
I0
sg1079
(lp2708
sg1081
g1082
sbag0
(g1073
g2
Ntp2709
Rp2710
(dp2711
g1077
I19
sg1078
I1
sg1079
(lp2712
sg1081
g1082
sbag0
(g1073
g2
Ntp2713
Rp2714
(dp2715
g1077
I19
sg1078
I2
sg1079
(lp2716
sg1081
g1082
sbag0
(g1073
g2
Ntp2717
Rp2718
(dp2719
g1077
I19
sg1078
I3
sg1079
(lp2720
sg1081
g1082
sbag0
(g1073
g2
Ntp2721
Rp2722
(dp2723
g1077
I19
sg1078
I4
sg1079
(lp2724
sg1081
g1082
sbag0
(g1073
g2
Ntp2725
Rp2726
(dp2727
g1077
I19
sg1078
I5
sg1079
(lp2728
sg1081
g1082
sbag0
(g1073
g2
Ntp2729
Rp2730
(dp2731
g1077
I19
sg1078
I6
sg1079
(lp2732
sg1081
g1082
sbag0
(g1073
g2
Ntp2733
Rp2734
(dp2735
g1077
I19
sg1078
I7
sg1079
(lp2736
sg1081
g1082
sbag0
(g1073
g2
Ntp2737
Rp2738
(dp2739
g1077
I19
sg1078
I8
sg1079
(lp2740
sg1081
g1082
sbag0
(g1073
g2
Ntp2741
Rp2742
(dp2743
g1077
I19
sg1078
I9
sg1079
(lp2744
sg1081
g1082
sbag0
(g1073
g2
Ntp2745
Rp2746
(dp2747
g1077
I19
sg1078
I10
sg1079
(lp2748
sg1081
g1082
sbag0
(g1073
g2
Ntp2749
Rp2750
(dp2751
g1077
I19
sg1078
I11
sg1079
(lp2752
sg1081
g1082
sbag0
(g1073
g2
Ntp2753
Rp2754
(dp2755
g1077
I19
sg1078
I12
sg1079
(lp2756
sg1081
g1082
sbag0
(g1073
g2
Ntp2757
Rp2758
(dp2759
g1077
I19
sg1078
I13
sg1079
(lp2760
sg1081
g1082
sbag0
(g1073
g2
Ntp2761
Rp2762
(dp2763
g1077
I19
sg1078
I14
sg1079
(lp2764
sg1081
g1082
sbag0
(g1073
g2
Ntp2765
Rp2766
(dp2767
g1077
I19
sg1078
I15
sg1079
(lp2768
sg1081
g1082
sbag0
(g1073
g2
Ntp2769
Rp2770
(dp2771
g1077
I16
sg1078
I19
sg1079
g740
sg1081
g1387
sbag0
(g1073
g2
Ntp2772
Rp2773
(dp2774
g1077
I17
sg1078
I19
sg1079
g410
sg1081
g1387
sbag0
(g1073
g2
Ntp2775
Rp2776
(dp2777
g1077
I18
sg1078
I19
sg1079
g334
sg1081
g1387
sbag0
(g1073
g2
Ntp2778
Rp2779
(dp2780
g1077
I19
sg1078
I19
sg1079
g24
sg1081
g1333
sbag0
(g1073
g2
Ntp2781
Rp2782
(dp2783
g1077
I20
sg1078
I19
sg1079
g1005
sg1081
g1333
sbag0
(g1073
g2
Ntp2784
Rp2785
(dp2786
g1077
I21
sg1078
I19
sg1079
g784
sg1081
g1333
sbag0
(g1073
g2
Ntp2787
Rp2788
(dp2789
g1077
I19
sg1078
I22
sg1079
(lp2790
sg1081
g1082
sbag0
(g1073
g2
Ntp2791
Rp2792
(dp2793
g1077
I19
sg1078
I23
sg1079
(lp2794
sg1081
g1082
sbag0
(g1073
g2
Ntp2795
Rp2796
(dp2797
g1077
I19
sg1078
I24
sg1079
(lp2798
sg1081
g1082
sbaa(lp2799
g0
(g1073
g2
Ntp2800
Rp2801
(dp2802
g1077
I20
sg1078
I0
sg1079
(lp2803
sg1081
g1082
sbag0
(g1073
g2
Ntp2804
Rp2805
(dp2806
g1077
I20
sg1078
I1
sg1079
(lp2807
sg1081
g1082
sbag0
(g1073
g2
Ntp2808
Rp2809
(dp2810
g1077
I20
sg1078
I2
sg1079
(lp2811
sg1081
g1082
sbag0
(g1073
g2
Ntp2812
Rp2813
(dp2814
g1077
I20
sg1078
I3
sg1079
(lp2815
sg1081
g1082
sbag0
(g1073
g2
Ntp2816
Rp2817
(dp2818
g1077
I20
sg1078
I4
sg1079
(lp2819
sg1081
g1082
sbag0
(g1073
g2
Ntp2820
Rp2821
(dp2822
g1077
I20
sg1078
I5
sg1079
(lp2823
sg1081
g1082
sbag0
(g1073
g2
Ntp2824
Rp2825
(dp2826
g1077
I20
sg1078
I6
sg1079
(lp2827
sg1081
g1082
sbag0
(g1073
g2
Ntp2828
Rp2829
(dp2830
g1077
I20
sg1078
I7
sg1079
(lp2831
sg1081
g1082
sbag0
(g1073
g2
Ntp2832
Rp2833
(dp2834
g1077
I20
sg1078
I8
sg1079
(lp2835
sg1081
g1082
sbag0
(g1073
g2
Ntp2836
Rp2837
(dp2838
g1077
I20
sg1078
I9
sg1079
(lp2839
sg1081
g1082
sbag0
(g1073
g2
Ntp2840
Rp2841
(dp2842
g1077
I20
sg1078
I10
sg1079
(lp2843
sg1081
g1082
sbag0
(g1073
g2
Ntp2844
Rp2845
(dp2846
g1077
I20
sg1078
I11
sg1079
(lp2847
sg1081
g1082
sbag0
(g1073
g2
Ntp2848
Rp2849
(dp2850
g1077
I20
sg1078
I12
sg1079
(lp2851
sg1081
g1082
sbag0
(g1073
g2
Ntp2852
Rp2853
(dp2854
g1077
I20
sg1078
I13
sg1079
(lp2855
sg1081
g1082
sbag0
(g1073
g2
Ntp2856
Rp2857
(dp2858
g1077
I20
sg1078
I14
sg1079
(lp2859
sg1081
g1082
sbag0
(g1073
g2
Ntp2860
Rp2861
(dp2862
g1077
I20
sg1078
I15
sg1079
(lp2863
sg1081
g1082
sbag0
(g1073
g2
Ntp2864
Rp2865
(dp2866
g1077
I20
sg1078
I16
sg1079
(lp2867
sg1081
g1082
sbag0
(g1073
g2
Ntp2868
Rp2869
(dp2870
g1077
I20
sg1078
I17
sg1079
(lp2871
sg1081
g1082
sbag0
(g1073
g2
Ntp2872
Rp2873
(dp2874
g1077
I20
sg1078
I18
sg1079
(lp2875
sg1081
g1082
sbag0
(g1073
g2
Ntp2876
Rp2877
(dp2878
g1077
I20
sg1078
I19
sg1079
(lp2879
sg1081
g1082
sbag0
(g1073
g2
Ntp2880
Rp2881
(dp2882
g1077
I20
sg1078
I20
sg1079
(lp2883
sg1081
g1082
sbag0
(g1073
g2
Ntp2884
Rp2885
(dp2886
g1077
I20
sg1078
I21
sg1079
(lp2887
sg1081
g1082
sbag0
(g1073
g2
Ntp2888
Rp2889
(dp2890
g1077
I20
sg1078
I22
sg1079
(lp2891
sg1081
g1082
sbag0
(g1073
g2
Ntp2892
Rp2893
(dp2894
g1077
I20
sg1078
I23
sg1079
(lp2895
sg1081
g1082
sbag0
(g1073
g2
Ntp2896
Rp2897
(dp2898
g1077
I20
sg1078
I24
sg1079
(lp2899
sg1081
g1082
sbaa(lp2900
g0
(g1073
g2
Ntp2901
Rp2902
(dp2903
g1077
I21
sg1078
I0
sg1079
(lp2904
sg1081
g1082
sbag0
(g1073
g2
Ntp2905
Rp2906
(dp2907
g1077
I21
sg1078
I1
sg1079
(lp2908
sg1081
g1082
sbag0
(g1073
g2
Ntp2909
Rp2910
(dp2911
g1077
I21
sg1078
I2
sg1079
(lp2912
sg1081
g1082
sbag0
(g1073
g2
Ntp2913
Rp2914
(dp2915
g1077
I21
sg1078
I3
sg1079
(lp2916
sg1081
g1082
sbag0
(g1073
g2
Ntp2917
Rp2918
(dp2919
g1077
I21
sg1078
I4
sg1079
(lp2920
sg1081
g1082
sbag0
(g1073
g2
Ntp2921
Rp2922
(dp2923
g1077
I21
sg1078
I5
sg1079
(lp2924
sg1081
g1082
sbag0
(g1073
g2
Ntp2925
Rp2926
(dp2927
g1077
I21
sg1078
I6
sg1079
(lp2928
sg1081
g1082
sbag0
(g1073
g2
Ntp2929
Rp2930
(dp2931
g1077
I21
sg1078
I7
sg1079
(lp2932
sg1081
g1082
sbag0
(g1073
g2
Ntp2933
Rp2934
(dp2935
g1077
I21
sg1078
I8
sg1079
(lp2936
sg1081
g1082
sbag0
(g1073
g2
Ntp2937
Rp2938
(dp2939
g1077
I21
sg1078
I9
sg1079
(lp2940
sg1081
g1082
sbag0
(g1073
g2
Ntp2941
Rp2942
(dp2943
g1077
I21
sg1078
I10
sg1079
(lp2944
sg1081
g1082
sbag0
(g1073
g2
Ntp2945
Rp2946
(dp2947
g1077
I21
sg1078
I11
sg1079
(lp2948
sg1081
g1082
sbag0
(g1073
g2
Ntp2949
Rp2950
(dp2951
g1077
I21
sg1078
I12
sg1079
(lp2952
sg1081
g1082
sbag0
(g1073
g2
Ntp2953
Rp2954
(dp2955
g1077
I21
sg1078
I13
sg1079
(lp2956
sg1081
g1082
sbag0
(g1073
g2
Ntp2957
Rp2958
(dp2959
g1077
I21
sg1078
I14
sg1079
(lp2960
sg1081
g1082
sbag0
(g1073
g2
Ntp2961
Rp2962
(dp2963
g1077
I21
sg1078
I15
sg1079
(lp2964
sg1081
g1082
sbag0
(g1073
g2
Ntp2965
Rp2966
(dp2967
g1077
I21
sg1078
I16
sg1079
(lp2968
sg1081
g1082
sbag0
(g1073
g2
Ntp2969
Rp2970
(dp2971
g1077
I21
sg1078
I17
sg1079
(lp2972
sg1081
g1082
sbag0
(g1073
g2
Ntp2973
Rp2974
(dp2975
g1077
I21
sg1078
I18
sg1079
(lp2976
sg1081
g1082
sbag0
(g1073
g2
Ntp2977
Rp2978
(dp2979
g1077
I21
sg1078
I19
sg1079
(lp2980
sg1081
g1082
sbag0
(g1073
g2
Ntp2981
Rp2982
(dp2983
g1077
I21
sg1078
I20
sg1079
(lp2984
sg1081
g1082
sbag0
(g1073
g2
Ntp2985
Rp2986
(dp2987
g1077
I21
sg1078
I21
sg1079
(lp2988
sg1081
g1082
sbag0
(g1073
g2
Ntp2989
Rp2990
(dp2991
g1077
I21
sg1078
I22
sg1079
(lp2992
sg1081
g1082
sbag0
(g1073
g2
Ntp2993
Rp2994
(dp2995
g1077
I21
sg1078
I23
sg1079
(lp2996
sg1081
g1082
sbag0
(g1073
g2
Ntp2997
Rp2998
(dp2999
g1077
I21
sg1078
I24
sg1079
(lp3000
sg1081
g1082
sbaa(lp3001
g0
(g1073
g2
Ntp3002
Rp3003
(dp3004
g1077
I22
sg1078
I0
sg1079
(lp3005
sg1081
g1082
sbag0
(g1073
g2
Ntp3006
Rp3007
(dp3008
g1077
I22
sg1078
I1
sg1079
(lp3009
sg1081
g1082
sbag0
(g1073
g2
Ntp3010
Rp3011
(dp3012
g1077
I22
sg1078
I2
sg1079
(lp3013
sg1081
g1082
sbag0
(g1073
g2
Ntp3014
Rp3015
(dp3016
g1077
I22
sg1078
I3
sg1079
(lp3017
sg1081
g1082
sbag0
(g1073
g2
Ntp3018
Rp3019
(dp3020
g1077
I22
sg1078
I4
sg1079
(lp3021
sg1081
g1082
sbag0
(g1073
g2
Ntp3022
Rp3023
(dp3024
g1077
I22
sg1078
I5
sg1079
(lp3025
sg1081
g1082
sbag0
(g1073
g2
Ntp3026
Rp3027
(dp3028
g1077
I22
sg1078
I6
sg1079
(lp3029
sg1081
g1082
sbag0
(g1073
g2
Ntp3030
Rp3031
(dp3032
g1077
I22
sg1078
I7
sg1079
(lp3033
sg1081
g1082
sbag0
(g1073
g2
Ntp3034
Rp3035
(dp3036
g1077
I22
sg1078
I8
sg1079
(lp3037
sg1081
g1082
sbag0
(g1073
g2
Ntp3038
Rp3039
(dp3040
g1077
I22
sg1078
I9
sg1079
(lp3041
sg1081
g1082
sbag0
(g1073
g2
Ntp3042
Rp3043
(dp3044
g1077
I22
sg1078
I10
sg1079
(lp3045
sg1081
g1082
sbag0
(g1073
g2
Ntp3046
Rp3047
(dp3048
g1077
I22
sg1078
I11
sg1079
(lp3049
sg1081
g1082
sbag0
(g1073
g2
Ntp3050
Rp3051
(dp3052
g1077
I22
sg1078
I12
sg1079
(lp3053
sg1081
g1082
sbag0
(g1073
g2
Ntp3054
Rp3055
(dp3056
g1077
I22
sg1078
I13
sg1079
(lp3057
sg1081
g1082
sbag0
(g1073
g2
Ntp3058
Rp3059
(dp3060
g1077
I22
sg1078
I14
sg1079
(lp3061
sg1081
g1082
sbag0
(g1073
g2
Ntp3062
Rp3063
(dp3064
g1077
I22
sg1078
I15
sg1079
(lp3065
sg1081
g1082
sbag0
(g1073
g2
Ntp3066
Rp3067
(dp3068
g1077
I22
sg1078
I16
sg1079
(lp3069
sg1081
g1082
sbag0
(g1073
g2
Ntp3070
Rp3071
(dp3072
g1077
I22
sg1078
I17
sg1079
(lp3073
sg1081
g1082
sbag0
(g1073
g2
Ntp3074
Rp3075
(dp3076
g1077
I22
sg1078
I18
sg1079
(lp3077
sg1081
g1082
sbag0
(g1073
g2
Ntp3078
Rp3079
(dp3080
g1077
I22
sg1078
I19
sg1079
(lp3081
sg1081
g1082
sbag0
(g1073
g2
Ntp3082
Rp3083
(dp3084
g1077
I22
sg1078
I20
sg1079
(lp3085
sg1081
g1082
sbag0
(g1073
g2
Ntp3086
Rp3087
(dp3088
g1077
I22
sg1078
I21
sg1079
(lp3089
sg1081
g1082
sbag0
(g1073
g2
Ntp3090
Rp3091
(dp3092
g1077
I22
sg1078
I22
sg1079
(lp3093
sg1081
g1082
sbag0
(g1073
g2
Ntp3094
Rp3095
(dp3096
g1077
I22
sg1078
I23
sg1079
(lp3097
sg1081
g1082
sbag0
(g1073
g2
Ntp3098
Rp3099
(dp3100
g1077
I22
sg1078
I24
sg1079
(lp3101
sg1081
g1082
sbaa(lp3102
g0
(g1073
g2
Ntp3103
Rp3104
(dp3105
g1077
I23
sg1078
I0
sg1079
(lp3106
sg1081
g1082
sbag0
(g1073
g2
Ntp3107
Rp3108
(dp3109
g1077
I23
sg1078
I1
sg1079
(lp3110
sg1081
g1082
sbag0
(g1073
g2
Ntp3111
Rp3112
(dp3113
g1077
I23
sg1078
I2
sg1079
(lp3114
sg1081
g1082
sbag0
(g1073
g2
Ntp3115
Rp3116
(dp3117
g1077
I23
sg1078
I3
sg1079
(lp3118
sg1081
g1082
sbag0
(g1073
g2
Ntp3119
Rp3120
(dp3121
g1077
I23
sg1078
I4
sg1079
(lp3122
sg1081
g1082
sbag0
(g1073
g2
Ntp3123
Rp3124
(dp3125
g1077
I23
sg1078
I5
sg1079
(lp3126
sg1081
g1082
sbag0
(g1073
g2
Ntp3127
Rp3128
(dp3129
g1077
I23
sg1078
I6
sg1079
(lp3130
sg1081
g1082
sbag0
(g1073
g2
Ntp3131
Rp3132
(dp3133
g1077
I23
sg1078
I7
sg1079
(lp3134
sg1081
g1082
sbag0
(g1073
g2
Ntp3135
Rp3136
(dp3137
g1077
I23
sg1078
I8
sg1079
(lp3138
sg1081
g1082
sbag0
(g1073
g2
Ntp3139
Rp3140
(dp3141
g1077
I23
sg1078
I9
sg1079
(lp3142
sg1081
g1082
sbag0
(g1073
g2
Ntp3143
Rp3144
(dp3145
g1077
I23
sg1078
I10
sg1079
(lp3146
sg1081
g1082
sbag0
(g1073
g2
Ntp3147
Rp3148
(dp3149
g1077
I23
sg1078
I11
sg1079
(lp3150
sg1081
g1082
sbag0
(g1073
g2
Ntp3151
Rp3152
(dp3153
g1077
I23
sg1078
I12
sg1079
(lp3154
sg1081
g1082
sbag0
(g1073
g2
Ntp3155
Rp3156
(dp3157
g1077
I23
sg1078
I13
sg1079
(lp3158
sg1081
g1082
sbag0
(g1073
g2
Ntp3159
Rp3160
(dp3161
g1077
I23
sg1078
I14
sg1079
(lp3162
sg1081
g1082
sbag0
(g1073
g2
Ntp3163
Rp3164
(dp3165
g1077
I23
sg1078
I15
sg1079
(lp3166
sg1081
g1082
sbag0
(g1073
g2
Ntp3167
Rp3168
(dp3169
g1077
I23
sg1078
I16
sg1079
(lp3170
sg1081
g1082
sbag0
(g1073
g2
Ntp3171
Rp3172
(dp3173
g1077
I23
sg1078
I17
sg1079
(lp3174
sg1081
g1082
sbag0
(g1073
g2
Ntp3175
Rp3176
(dp3177
g1077
I23
sg1078
I18
sg1079
(lp3178
sg1081
g1082
sbag0
(g1073
g2
Ntp3179
Rp3180
(dp3181
g1077
I23
sg1078
I19
sg1079
(lp3182
sg1081
g1082
sbag0
(g1073
g2
Ntp3183
Rp3184
(dp3185
g1077
I23
sg1078
I20
sg1079
(lp3186
sg1081
g1082
sbag0
(g1073
g2
Ntp3187
Rp3188
(dp3189
g1077
I23
sg1078
I21
sg1079
(lp3190
sg1081
g1082
sbag0
(g1073
g2
Ntp3191
Rp3192
(dp3193
g1077
I23
sg1078
I22
sg1079
(lp3194
sg1081
g1082
sbag0
(g1073
g2
Ntp3195
Rp3196
(dp3197
g1077
I23
sg1078
I23
sg1079
(lp3198
sg1081
g1082
sbag0
(g1073
g2
Ntp3199
Rp3200
(dp3201
g1077
I23
sg1078
I24
sg1079
(lp3202
sg1081
g1082
sbaa(lp3203
g0
(g1073
g2
Ntp3204
Rp3205
(dp3206
g1077
I24
sg1078
I0
sg1079
(lp3207
sg1081
g1082
sbag0
(g1073
g2
Ntp3208
Rp3209
(dp3210
g1077
I24
sg1078
I1
sg1079
(lp3211
sg1081
g1082
sbag0
(g1073
g2
Ntp3212
Rp3213
(dp3214
g1077
I24
sg1078
I2
sg1079
(lp3215
sg1081
g1082
sbag0
(g1073
g2
Ntp3216
Rp3217
(dp3218
g1077
I24
sg1078
I3
sg1079
(lp3219
sg1081
g1082
sbag0
(g1073
g2
Ntp3220
Rp3221
(dp3222
g1077
I24
sg1078
I4
sg1079
(lp3223
sg1081
g1082
sbag0
(g1073
g2
Ntp3224
Rp3225
(dp3226
g1077
I24
sg1078
I5
sg1079
(lp3227
sg1081
g1082
sbag0
(g1073
g2
Ntp3228
Rp3229
(dp3230
g1077
I24
sg1078
I6
sg1079
(lp3231
sg1081
g1082
sbag0
(g1073
g2
Ntp3232
Rp3233
(dp3234
g1077
I24
sg1078
I7
sg1079
(lp3235
sg1081
g1082
sbag0
(g1073
g2
Ntp3236
Rp3237
(dp3238
g1077
I24
sg1078
I8
sg1079
(lp3239
sg1081
g1082
sbag0
(g1073
g2
Ntp3240
Rp3241
(dp3242
g1077
I24
sg1078
I9
sg1079
(lp3243
sg1081
g1082
sbag0
(g1073
g2
Ntp3244
Rp3245
(dp3246
g1077
I24
sg1078
I10
sg1079
(lp3247
sg1081
g1082
sbag0
(g1073
g2
Ntp3248
Rp3249
(dp3250
g1077
I24
sg1078
I11
sg1079
(lp3251
sg1081
g1082
sbag0
(g1073
g2
Ntp3252
Rp3253
(dp3254
g1077
I24
sg1078
I12
sg1079
(lp3255
sg1081
g1082
sbag0
(g1073
g2
Ntp3256
Rp3257
(dp3258
g1077
I24
sg1078
I13
sg1079
(lp3259
sg1081
g1082
sbag0
(g1073
g2
Ntp3260
Rp3261
(dp3262
g1077
I24
sg1078
I14
sg1079
(lp3263
sg1081
g1082
sbag0
(g1073
g2
Ntp3264
Rp3265
(dp3266
g1077
I24
sg1078
I15
sg1079
(lp3267
sg1081
g1082
sbag0
(g1073
g2
Ntp3268
Rp3269
(dp3270
g1077
I24
sg1078
I16
sg1079
(lp3271
sg1081
g1082
sbag0
(g1073
g2
Ntp3272
Rp3273
(dp3274
g1077
I24
sg1078
I17
sg1079
(lp3275
sg1081
g1082
sbag0
(g1073
g2
Ntp3276
Rp3277
(dp3278
g1077
I24
sg1078
I18
sg1079
(lp3279
sg1081
g1082
sbag0
(g1073
g2
Ntp3280
Rp3281
(dp3282
g1077
I24
sg1078
I19
sg1079
(lp3283
sg1081
g1082
sbag0
(g1073
g2
Ntp3284
Rp3285
(dp3286
g1077
I24
sg1078
I20
sg1079
(lp3287
sg1081
g1082
sbag0
(g1073
g2
Ntp3288
Rp3289
(dp3290
g1077
I24
sg1078
I21
sg1079
(lp3291
sg1081
g1082
sbag0
(g1073
g2
Ntp3292
Rp3293
(dp3294
g1077
I24
sg1078
I22
sg1079
(lp3295
sg1081
g1082
sbag0
(g1073
g2
Ntp3296
Rp3297
(dp3298
g1077
I24
sg1078
I23
sg1079
(lp3299
sg1081
g1082
sbag0
(g1073
g2
Ntp3300
Rp3301
(dp3302
g1077
I24
sg1078
I24
sg1079
(lp3303
sg1081
g1082
sbaasS'ludnosc'
p3304
(lp3305
g0
(cgenerowanie_swiata
konsument
p3306
g2
Ntp3307
Rp3308
(dp3309
S'zarobki'
p3310
I4500
sS'wiek'
p3311
I31
sS'okazja'
p3312
I0
sS'zainteresowania'
p3313
(lp3314
S'natura'
p3315
aS'kosmetyki'
p3316
ag3316
asS'domx'
p3317
I11
sS'domy'
p3318
I3
sS'plec'
p3319
S'Mezczyzna'
p3320
sS'pracay'
p3321
I19
sS'pracax'
p3322
I3
sS'wyksztalcenie'
p3323
I3
sS'znajomi'
p3324
(lp3325
I38
aI88
aI97
asbag0
(g3306
g2
Ntp3326
Rp3327
(dp3328
g3310
I2480
sg3311
I22
sg3312
I0
sg3313
(lp3329
S'ksiazka'
p3330
ag3316
aS'piwowarstwo'
p3331
asg3317
I11
sg3318
I6
sg3319
S'Kobieta'
p3332
sg3321
I19
sg3322
I3
sg3323
I2
sg3324
(lp3333
I60
aI98
aI86
asbag0
(g3306
g2
Ntp3334
Rp3335
(dp3336
g3310
I3000
sg3311
I47
sg3312
I0
sg3313
(lp3337
S'fotografia'
p3338
aS'ogrodnictwo'
p3339
aS'moda'
p3340
asg3317
I11
sg3318
I6
sg3319
g3332
sg3321
I13
sg3322
I11
sg3323
I1
sg3324
(lp3341
I7
aI69
aI17
asbag0
(g3306
g2
Ntp3342
Rp3343
(dp3344
g3310
I4500
sg3311
I61
sg3312
I0
sg3313
(lp3345
g3331
aS'gry'
p3346
ag3331
asg3317
I4
sg3318
I13
sg3319
g3332
sg3321
I20
sg3322
I17
sg3323
I3
sg3324
(lp3347
I84
aI21
aI91
asbag0
(g3306
g2
Ntp3348
Rp3349
(dp3350
g3310
I6000
sg3311
I34
sg3312
I0
sg3313
(lp3351
g3330
aS'koncerty'
p3352
aS'muzykaklasyczna'
p3353
asg3317
I10
sg3318
I11
sg3319
g3332
sg3321
I4
sg3322
I16
sg3323
I4
sg3324
(lp3354
I23
aI64
aI11
asbag0
(g3306
g2
Ntp3355
Rp3356
(dp3357
g3310
I6000
sg3311
I44
sg3312
I0
sg3313
(lp3358
S'nightlife'
p3359
ag3359
ag3316
asg3317
I11
sg3318
I3
sg3319
g3332
sg3321
I14
sg3322
I16
sg3323
I2
sg3324
(lp3360
I98
aI17
aI47
asbag0
(g3306
g2
Ntp3361
Rp3362
(dp3363
g3310
I4560
sg3311
I64
sg3312
I0
sg3313
(lp3364
g3331
aS'malarstwo'
p3365
ag3352
asg3317
I6
sg3318
I14
sg3319
g3320
sg3321
I11
sg3322
I4
sg3323
I2
sg3324
(lp3366
I43
aI61
aI10
asbag0
(g3306
g2
Ntp3367
Rp3368
(dp3369
g3310
I4560
sg3311
I51
sg3312
I0
sg3313
(lp3370
S'historiapolski'
p3371
ag3340
aS'motoryzacja'
p3372
asg3317
I5
sg3318
I2
sg3319
g3320
sg3321
I8
sg3322
I12
sg3323
I2
sg3324
(lp3373
I12
aI93
aI21
asbag0
(g3306
g2
Ntp3374
Rp3375
(dp3376
g3310
I4500
sg3311
I73
sg3312
I0
sg3313
(lp3377
g3315
aS'sport'
p3378
ag3378
asg3317
I6
sg3318
I16
sg3319
g3332
sg3321
I13
sg3322
I11
sg3323
I3
sg3324
(lp3379
I18
aI79
aI37
asbag0
(g3306
g2
Ntp3380
Rp3381
(dp3382
g3310
I0
sg3311
I6
sg3312
I0
sg3313
(lp3383
g3316
aS'historia'
p3384
ag3359
asg3317
I16
sg3318
I13
sg3319
g3332
sg3321
I10
sg3322
I8
sg3323
I0
sg3324
(lp3385
I6
aI52
aI3
asbag0
(g3306
g2
Ntp3386
Rp3387
(dp3388
g3310
I4500
sg3311
I56
sg3312
I0
sg3313
(lp3389
g3338
ag3338
ag3384
asg3317
I5
sg3318
I21
sg3319
g3332
sg3321
I12
sg3322
I4
sg3323
I3
sg3324
(lp3390
I31
aI95
aI89
asbag0
(g3306
g2
Ntp3391
Rp3392
(dp3393
g3310
I4500
sg3311
I26
sg3312
I0
sg3313
(lp3394
S'finanse'
p3395
aS'kulturaalternatywna'
p3396
aS'kultura'
p3397
asg3317
I17
sg3318
I19
sg3319
g3332
sg3321
I20
sg3322
I5
sg3323
I4
sg3324
(lp3398
I80
aI14
aI9
asbag0
(g3306
g2
Ntp3399
Rp3400
(dp3401
g3310
I3000
sg3311
I54
sg3312
I0
sg3313
(lp3402
g3346
ag3346
ag3352
asg3317
I6
sg3318
I9
sg3319
g3320
sg3321
I21
sg3322
I6
sg3323
I1
sg3324
(lp3403
I75
aI17
aI59
asbag0
(g3306
g2
Ntp3404
Rp3405
(dp3406
g3310
I3000
sg3311
I44
sg3312
I0
sg3313
(lp3407
S'gotowanie'
p3408
ag3340
aS'teatr'
p3409
asg3317
I6
sg3318
I16
sg3319
g3332
sg3321
I15
sg3322
I8
sg3323
I1
sg3324
(lp3410
I74
aI79
aI66
asbag0
(g3306
g2
Ntp3411
Rp3412
(dp3413
g3310
I4500
sg3311
I78
sg3312
I0
sg3313
(lp3414
g3397
ag3315
ag3340
asg3317
I6
sg3318
I19
sg3319
g3332
sg3321
I6
sg3322
I7
sg3323
I3
sg3324
(lp3415
I47
aI97
aI5
asbag0
(g3306
g2
Ntp3416
Rp3417
(dp3418
g3310
I4500
sg3311
I44
sg3312
I0
sg3313
(lp3419
g3409
ag3359
ag3338
asg3317
I14
sg3318
I10
sg3319
g3332
sg3321
I22
sg3322
I10
sg3323
I3
sg3324
(lp3420
I63
aI72
aI57
asbag0
(g3306
g2
Ntp3421
Rp3422
(dp3423
g3310
I7500
sg3311
I47
sg3312
I0
sg3313
(lp3424
g3315
ag3331
ag3365
asg3317
I17
sg3318
I18
sg3319
g3332
sg3321
I16
sg3322
I4
sg3323
I4
sg3324
(lp3425
I67
aI87
aI71
asbag0
(g3306
g2
Ntp3426
Rp3427
(dp3428
g3310
I5600
sg3311
I38
sg3312
I0
sg3313
(lp3429
g3331
ag3395
ag3384
asg3317
I7
sg3318
I5
sg3319
g3332
sg3321
I16
sg3322
I4
sg3323
I2
sg3324
(lp3430
I37
aI65
aI39
asbag0
(g3306
g2
Ntp3431
Rp3432
(dp3433
g3310
I2480
sg3311
I24
sg3312
I0
sg3313
(lp3434
g3353
ag3330
ag3346
asg3317
I3
sg3318
I3
sg3319
g3332
sg3321
I8
sg3322
I14
sg3323
I2
sg3324
(lp3435
I48
aI47
aI99
asbag0
(g3306
g2
Ntp3436
Rp3437
(dp3438
g3310
I0
sg3311
I17
sg3312
I0
sg3313
(lp3439
g3339
ag3316
ag3378
asg3317
I9
sg3318
I6
sg3319
g3320
sg3321
I13
sg3322
I11
sg3323
I0
sg3324
(lp3440
I90
aI5
aI64
asbag0
(g3306
g2
Ntp3441
Rp3442
(dp3443
g3310
I5700
sg3311
I91
sg3312
I0
sg3313
(lp3444
g3340
ag3346
ag3395
asg3317
I12
sg3318
I3
sg3319
g3332
sg3321
I13
sg3322
I11
sg3323
I4
sg3324
(lp3445
I7
aI15
aI7
asbag0
(g3306
g2
Ntp3446
Rp3447
(dp3448
g3310
I5700
sg3311
I57
sg3312
I0
sg3313
(lp3449
g3330
ag3408
aS'ksiazki'
p3450
asg3317
I16
sg3318
I6
sg3319
g3332
sg3321
I20
sg3322
I14
sg3323
I4
sg3324
(lp3451
I93
aI4
aI52
asbag0
(g3306
g2
Ntp3452
Rp3453
(dp3454
g3310
I4500
sg3311
I49
sg3312
I0
sg3313
(lp3455
g3331
ag3352
ag3330
asg3317
I9
sg3318
I13
sg3319
g3332
sg3321
I20
sg3322
I5
sg3323
I3
sg3324
(lp3456
I15
aI57
aI67
asbag0
(g3306
g2
Ntp3457
Rp3458
(dp3459
g3310
I0
sg3311
I1
sg3312
I0
sg3313
(lp3460
g3330
ag3396
ag3378
asg3317
I3
sg3318
I21
sg3319
g3320
sg3321
I20
sg3322
I5
sg3323
I0
sg3324
(lp3461
I77
aI97
aI96
asbag0
(g3306
g2
Ntp3462
Rp3463
(dp3464
g3310
I3000
sg3311
I82
sg3312
I0
sg3313
(lp3465
g3395
ag3330
ag3353
asg3317
I7
sg3318
I22
sg3319
g3332
sg3321
I8
sg3322
I12
sg3323
I1
sg3324
(lp3466
I10
aI79
aI33
asbag0
(g3306
g2
Ntp3467
Rp3468
(dp3469
g3310
I4800
sg3311
I33
sg3312
I0
sg3313
(lp3470
g3316
ag3331
ag3330
asg3317
I16
sg3318
I6
sg3319
g3320
sg3321
I10
sg3322
I2
sg3323
I2
sg3324
(lp3471
I62
aI47
aI69
asbag0
(g3306
g2
Ntp3472
Rp3473
(dp3474
g3310
I0
sg3311
I18
sg3312
I0
sg3313
(lp3475
g3352
ag3395
ag3359
asg3317
I11
sg3318
I22
sg3319
g3332
sg3321
I8
sg3322
I5
sg3323
I0
sg3324
(lp3476
I35
aI6
aI96
asbag0
(g3306
g2
Ntp3477
Rp3478
(dp3479
g3310
I4560
sg3311
I77
sg3312
I0
sg3313
(lp3480
g3384
ag3315
ag3346
asg3317
I5
sg3318
I18
sg3319
g3332
sg3321
I12
sg3322
I4
sg3323
I2
sg3324
(lp3481
I50
aI35
aI47
asbag0
(g3306
g2
Ntp3482
Rp3483
(dp3484
g3310
I5700
sg3311
I51
sg3312
I0
sg3313
(lp3485
g3397
ag3396
ag3338
asg3317
I6
sg3318
I3
sg3319
g3320
sg3321
I8
sg3322
I5
sg3323
I4
sg3324
(lp3486
I94
aI64
aI83
asbag0
(g3306
g2
Ntp3487
Rp3488
(dp3489
g3310
I0
sg3311
I5
sg3312
I0
sg3313
(lp3490
g3378
ag3353
ag3365
asg3317
I12
sg3318
I12
sg3319
g3320
sg3321
I8
sg3322
I14
sg3323
I0
sg3324
(lp3491
I11
aI3
aI70
asbag0
(g3306
g2
Ntp3492
Rp3493
(dp3494
g3310
I4500
sg3311
I41
sg3312
I0
sg3313
(lp3495
S'boks'
p3496
ag3409
ag3496
asg3317
I18
sg3318
I15
sg3319
g3320
sg3321
I14
sg3322
I8
sg3323
I3
sg3324
(lp3497
I45
aI14
aI36
asbag0
(g3306
g2
Ntp3498
Rp3499
(dp3500
g3310
I0
sg3311
I0
sg3312
I0
sg3313
(lp3501
g3346
ag3316
ag3408
asg3317
I9
sg3318
I6
sg3319
g3332
sg3321
I8
sg3322
I14
sg3323
I0
sg3324
(lp3502
I38
aI80
aI35
asbag0
(g3306
g2
Ntp3503
Rp3504
(dp3505
g3310
I3600
sg3311
I28
sg3312
I0
sg3313
(lp3506
g3339
ag3331
ag3384
asg3317
I12
sg3318
I20
sg3319
g3320
sg3321
I11
sg3322
I4
sg3323
I2
sg3324
(lp3507
I4
aI76
aI64
asbag0
(g3306
g2
Ntp3508
Rp3509
(dp3510
g3310
I7500
sg3311
I50
sg3312
I0
sg3313
(lp3511
g3359
ag3353
ag3346
asg3317
I11
sg3318
I18
sg3319
g3332
sg3321
I9
sg3322
I12
sg3323
I4
sg3324
(lp3512
I35
aI88
aI7
asbag0
(g3306
g2
Ntp3513
Rp3514
(dp3515
g3310
I0
sg3311
I7
sg3312
I0
sg3313
(lp3516
g3338
ag3408
ag3340
asg3317
I3
sg3318
I6
sg3319
g3332
sg3321
I22
sg3322
I9
sg3323
I0
sg3324
(lp3517
I53
aI11
aI67
asbag0
(g3306
g2
Ntp3518
Rp3519
(dp3520
g3310
I3000
sg3311
I55
sg3312
I0
sg3313
(lp3521
g3339
ag3330
ag3409
asg3317
I7
sg3318
I22
sg3319
g3320
sg3321
I10
sg3322
I8
sg3323
I1
sg3324
(lp3522
I42
aI1
aI21
asbag0
(g3306
g2
Ntp3523
Rp3524
(dp3525
g3310
I3000
sg3311
I33
sg3312
I0
sg3313
(lp3526
g3365
ag3384
ag3352
asg3317
I3
sg3318
I3
sg3319
g3320
sg3321
I11
sg3322
I12
sg3323
I1
sg3324
(lp3527
I5
aI20
aI53
asbag0
(g3306
g2
Ntp3528
Rp3529
(dp3530
g3310
I4800
sg3311
I33
sg3312
I0
sg3313
(lp3531
g3340
ag3378
ag3384
asg3317
I10
sg3318
I18
sg3319
g3320
sg3321
I14
sg3322
I4
sg3323
I2
sg3324
(lp3532
I11
aI61
aI61
asbag0
(g3306
g2
Ntp3533
Rp3534
(dp3535
g3310
I3000
sg3311
I64
sg3312
I0
sg3313
(lp3536
g3359
ag3371
ag3409
asg3317
I15
sg3318
I20
sg3319
g3332
sg3321
I15
sg3322
I8
sg3323
I1
sg3324
(lp3537
I26
aI28
aI60
asbag0
(g3306
g2
Ntp3538
Rp3539
(dp3540
g3310
I0
sg3311
I8
sg3312
I0
sg3313
(lp3541
g3346
ag3331
ag3352
asg3317
I18
sg3318
I22
sg3319
g3332
sg3321
I11
sg3322
I12
sg3323
I0
sg3324
(lp3542
I61
aI94
aI75
asbag0
(g3306
g2
Ntp3543
Rp3544
(dp3545
g3310
I5700
sg3311
I84
sg3312
I0
sg3313
(lp3546
g3340
ag3409
ag3340
asg3317
I3
sg3318
I6
sg3319
g3320
sg3321
I6
sg3322
I7
sg3323
I4
sg3324
(lp3547
I65
aI5
aI39
asbag0
(g3306
g2
Ntp3548
Rp3549
(dp3550
g3310
I0
sg3311
I14
sg3312
I0
sg3313
(lp3551
g3353
ag3372
ag3371
asg3317
I11
sg3318
I3
sg3319
g3320
sg3321
I4
sg3322
I16
sg3323
I0
sg3324
(lp3552
I45
aI78
aI90
asbag0
(g3306
g2
Ntp3553
Rp3554
(dp3555
g3310
I7500
sg3311
I49
sg3312
I0
sg3313
(lp3556
g3396
ag3339
ag3316
asg3317
I10
sg3318
I18
sg3319
g3320
sg3321
I20
sg3322
I14
sg3323
I4
sg3324
(lp3557
I51
aI95
aI95
asbag0
(g3306
g2
Ntp3558
Rp3559
(dp3560
g3310
I5700
sg3311
I66
sg3312
I0
sg3313
(lp3561
g3365
ag3330
ag3331
asg3317
I7
sg3318
I22
sg3319
g3332
sg3321
I9
sg3322
I14
sg3323
I4
sg3324
(lp3562
I17
aI28
aI85
asbag0
(g3306
g2
Ntp3563
Rp3564
(dp3565
g3310
I5000
sg3311
I39
sg3312
I0
sg3313
(lp3566
g3372
ag3331
ag3316
asg3317
I15
sg3318
I20
sg3319
g3332
sg3321
I15
sg3322
I8
sg3323
I3
sg3324
(lp3567
I20
aI32
aI33
asbag0
(g3306
g2
Ntp3568
Rp3569
(dp3570
g3310
I4500
sg3311
I63
sg3312
I0
sg3313
(lp3571
g3496
ag3395
ag3372
asg3317
I3
sg3318
I6
sg3319
g3320
sg3321
I8
sg3322
I14
sg3323
I3
sg3324
(lp3572
I46
aI89
aI56
asbag0
(g3306
g2
Ntp3573
Rp3574
(dp3575
g3310
I3000
sg3311
I60
sg3312
I0
sg3313
(lp3576
g3352
ag3339
ag3408
asg3317
I5
sg3318
I21
sg3319
g3320
sg3321
I16
sg3322
I4
sg3323
I1
sg3324
(lp3577
I91
aI76
aI82
asbag0
(g3306
g2
Ntp3578
Rp3579
(dp3580
g3310
I0
sg3311
I15
sg3312
I0
sg3313
(lp3581
g3330
ag3496
ag3384
asg3317
I8
sg3318
I19
sg3319
g3332
sg3321
I14
sg3322
I3
sg3323
I0
sg3324
(lp3582
I40
aI24
aI66
asbag0
(g3306
g2
Ntp3583
Rp3584
(dp3585
g3310
I4500
sg3311
I65
sg3312
I0
sg3313
(lp3586
g3316
ag3395
ag3316
asg3317
I3
sg3318
I20
sg3319
g3332
sg3321
I14
sg3322
I8
sg3323
I3
sg3324
(lp3587
I69
aI61
aI90
asbag0
(g3306
g2
Ntp3588
Rp3589
(dp3590
g3310
I4500
sg3311
I72
sg3312
I0
sg3313
(lp3591
g3397
ag3315
ag3384
asg3317
I8
sg3318
I20
sg3319
g3320
sg3321
I15
sg3322
I8
sg3323
I3
sg3324
(lp3592
I81
aI36
aI97
asbag0
(g3306
g2
Ntp3593
Rp3594
(dp3595
g3310
I3600
sg3311
I28
sg3312
I0
sg3313
(lp3596
g3395
ag3408
ag3339
asg3317
I10
sg3318
I8
sg3319
g3320
sg3321
I8
sg3322
I12
sg3323
I2
sg3324
(lp3597
I83
aI87
aI27
asbag0
(g3306
g2
Ntp3598
Rp3599
(dp3600
g3310
I3000
sg3311
I35
sg3312
I0
sg3313
(lp3601
g3372
ag3496
ag3395
asg3317
I16
sg3318
I7
sg3319
g3320
sg3321
I20
sg3322
I14
sg3323
I1
sg3324
(lp3602
I64
aI6
aI89
asbag0
(g3306
g2
Ntp3603
Rp3604
(dp3605
g3310
I3000
sg3311
I86
sg3312
I0
sg3313
(lp3606
g3450
ag3316
ag3396
asg3317
I12
sg3318
I12
sg3319
g3332
sg3321
I9
sg3322
I12
sg3323
I1
sg3324
(lp3607
I38
aI48
aI86
asbag0
(g3306
g2
Ntp3608
Rp3609
(dp3610
g3310
I7500
sg3311
I41
sg3312
I0
sg3313
(lp3611
g3353
ag3346
ag3315
asg3317
I12
sg3318
I18
sg3319
g3332
sg3321
I12
sg3322
I4
sg3323
I4
sg3324
(lp3612
I98
aI37
aI73
asbag0
(g3306
g2
Ntp3613
Rp3614
(dp3615
g3310
I7000
sg3311
I40
sg3312
I0
sg3313
(lp3616
g3330
ag3346
ag3340
asg3317
I16
sg3318
I13
sg3319
g3320
sg3321
I14
sg3322
I8
sg3323
I4
sg3324
(lp3617
I29
aI40
aI78
asbag0
(g3306
g2
Ntp3618
Rp3619
(dp3620
g3310
I4500
sg3311
I60
sg3312
I0
sg3313
(lp3621
g3315
ag3396
ag3359
asg3317
I8
sg3318
I8
sg3319
g3320
sg3321
I22
sg3322
I9
sg3323
I3
sg3324
(lp3622
I41
aI27
aI10
asbag0
(g3306
g2
Ntp3623
Rp3624
(dp3625
g3310
I7500
sg3311
I47
sg3312
I0
sg3313
(lp3626
g3359
ag3397
ag3365
asg3317
I16
sg3318
I20
sg3319
g3332
sg3321
I22
sg3322
I10
sg3323
I4
sg3324
(lp3627
I61
aI35
aI76
asbag0
(g3306
g2
Ntp3628
Rp3629
(dp3630
g3310
I0
sg3311
I0
sg3312
I0
sg3313
(lp3631
g3396
ag3339
ag3315
asg3317
I16
sg3318
I15
sg3319
g3332
sg3321
I8
sg3322
I12
sg3323
I0
sg3324
(lp3632
I9
aI97
aI72
asbag0
(g3306
g2
Ntp3633
Rp3634
(dp3635
g3310
I4560
sg3311
I64
sg3312
I0
sg3313
(lp3636
g3338
ag3397
ag3395
asg3317
I6
sg3318
I12
sg3319
g3332
sg3321
I20
sg3322
I17
sg3323
I2
sg3324
(lp3637
I52
aI17
aI70
asbag0
(g3306
g2
Ntp3638
Rp3639
(dp3640
g3310
I4500
sg3311
I83
sg3312
I0
sg3313
(lp3641
g3331
ag3378
ag3397
asg3317
I10
sg3318
I6
sg3319
g3332
sg3321
I22
sg3322
I10
sg3323
I3
sg3324
(lp3642
I24
aI14
aI43
asbag0
(g3306
g2
Ntp3643
Rp3644
(dp3645
g3310
I5700
sg3311
I97
sg3312
I0
sg3313
(lp3646
g3365
ag3340
ag3346
asg3317
I12
sg3318
I22
sg3319
g3332
sg3321
I10
sg3322
I2
sg3323
I4
sg3324
(lp3647
I40
aI25
aI47
asbag0
(g3306
g2
Ntp3648
Rp3649
(dp3650
g3310
I3100
sg3311
I25
sg3312
I0
sg3313
(lp3651
g3378
ag3315
ag3371
asg3317
I9
sg3318
I18
sg3319
g3320
sg3321
I9
sg3322
I12
sg3323
I4
sg3324
(lp3652
I47
aI48
aI48
asbag0
(g3306
g2
Ntp3653
Rp3654
(dp3655
g3310
I4500
sg3311
I45
sg3312
I0
sg3313
(lp3656
g3340
ag3384
ag3346
asg3317
I18
sg3318
I22
sg3319
g3332
sg3321
I15
sg3322
I8
sg3323
I3
sg3324
(lp3657
I28
aI69
aI24
asbag0
(g3306
g2
Ntp3658
Rp3659
(dp3660
g3310
I2480
sg3311
I23
sg3312
I0
sg3313
(lp3661
g3330
ag3365
ag3496
asg3317
I8
sg3318
I11
sg3319
g3320
sg3321
I8
sg3322
I5
sg3323
I2
sg3324
(lp3662
I23
aI58
aI54
asbag0
(g3306
g2
Ntp3663
Rp3664
(dp3665
g3310
I5700
sg3311
I75
sg3312
I0
sg3313
(lp3666
g3352
ag3395
ag3371
asg3317
I9
sg3318
I16
sg3319
g3332
sg3321
I20
sg3322
I5
sg3323
I4
sg3324
(lp3667
I3
aI54
aI21
asbag0
(g3306
g2
Ntp3668
Rp3669
(dp3670
g3310
I5700
sg3311
I66
sg3312
I0
sg3313
(lp3671
g3346
ag3352
ag3339
asg3317
I14
sg3318
I12
sg3319
g3332
sg3321
I14
sg3322
I8
sg3323
I4
sg3324
(lp3672
I90
aI18
aI67
asbag0
(g3306
g2
Ntp3673
Rp3674
(dp3675
g3310
I3600
sg3311
I28
sg3312
I0
sg3313
(lp3676
g3396
ag3315
ag3408
asg3317
I8
sg3318
I20
sg3319
g3320
sg3321
I13
sg3322
I6
sg3323
I2
sg3324
(lp3677
I22
aI44
aI2
asbag0
(g3306
g2
Ntp3678
Rp3679
(dp3680
g3310
I5000
sg3311
I38
sg3312
I0
sg3313
(lp3681
g3346
ag3340
ag3353
asg3317
I13
sg3318
I3
sg3319
g3332
sg3321
I4
sg3322
I16
sg3323
I3
sg3324
(lp3682
I15
aI33
aI19
asbag0
(g3306
g2
Ntp3683
Rp3684
(dp3685
g3310
I5000
sg3311
I40
sg3312
I0
sg3313
(lp3686
g3346
ag3408
ag3339
asg3317
I6
sg3318
I18
sg3319
g3320
sg3321
I14
sg3322
I16
sg3323
I3
sg3324
(lp3687
I63
aI90
aI1
asbag0
(g3306
g2
Ntp3688
Rp3689
(dp3690
g3310
I4560
sg3311
I59
sg3312
I0
sg3313
(lp3691
g3359
ag3316
ag3331
asg3317
I11
sg3318
I16
sg3319
g3332
sg3321
I20
sg3322
I14
sg3323
I2
sg3324
(lp3692
I34
aI93
aI70
asbag0
(g3306
g2
Ntp3693
Rp3694
(dp3695
g3310
I7500
sg3311
I44
sg3312
I0
sg3313
(lp3696
g3384
ag3339
ag3378
asg3317
I14
sg3318
I7
sg3319
g3332
sg3321
I20
sg3322
I5
sg3323
I4
sg3324
(lp3697
I70
aI6
aI45
asbag0
(g3306
g2
Ntp3698
Rp3699
(dp3700
g3310
I5700
sg3311
I72
sg3312
I0
sg3313
(lp3701
g3496
ag3346
ag3395
asg3317
I3
sg3318
I10
sg3319
g3332
sg3321
I8
sg3322
I5
sg3323
I4
sg3324
(lp3702
I10
aI90
aI6
asbag0
(g3306
g2
Ntp3703
Rp3704
(dp3705
g3310
I5000
sg3311
I40
sg3312
I0
sg3313
(lp3706
g3330
ag3396
ag3384
asg3317
I7
sg3318
I3
sg3319
g3332
sg3321
I14
sg3322
I8
sg3323
I3
sg3324
(lp3707
I15
aI78
aI88
asbag0
(g3306
g2
Ntp3708
Rp3709
(dp3710
g3310
I6000
sg3311
I44
sg3312
I0
sg3313
(lp3711
g3340
ag3353
ag3359
asg3317
I14
sg3318
I13
sg3319
g3332
sg3321
I8
sg3322
I14
sg3323
I2
sg3324
(lp3712
I16
aI96
aI45
asbag0
(g3306
g2
Ntp3713
Rp3714
(dp3715
g3310
I5700
sg3311
I54
sg3312
I0
sg3313
(lp3716
g3372
ag3339
ag3353
asg3317
I11
sg3318
I16
sg3319
g3332
sg3321
I20
sg3322
I5
sg3323
I4
sg3324
(lp3717
I64
aI65
aI76
asbag0
(g3306
g2
Ntp3718
Rp3719
(dp3720
g3310
I0
sg3311
I5
sg3312
I0
sg3313
(lp3721
g3371
ag3316
ag3340
asg3317
I16
sg3318
I5
sg3319
g3320
sg3321
I11
sg3322
I12
sg3323
I0
sg3324
(lp3722
I71
aI98
aI72
asbag0
(g3306
g2
Ntp3723
Rp3724
(dp3725
g3310
I4560
sg3311
I83
sg3312
I0
sg3313
(lp3726
g3346
ag3338
ag3331
asg3317
I6
sg3318
I9
sg3319
g3320
sg3321
I11
sg3322
I4
sg3323
I2
sg3324
(lp3727
I7
aI59
aI77
asbag0
(g3306
g2
Ntp3728
Rp3729
(dp3730
g3310
I0
sg3311
I1
sg3312
I0
sg3313
(lp3731
g3331
ag3340
ag3339
asg3317
I9
sg3318
I13
sg3319
g3332
sg3321
I8
sg3322
I14
sg3323
I0
sg3324
(lp3732
I62
aI18
aI56
asbag0
(g3306
g2
Ntp3733
Rp3734
(dp3735
g3310
I2480
sg3311
I25
sg3312
I0
sg3313
(lp3736
g3338
ag3371
ag3353
asg3317
I4
sg3318
I13
sg3319
g3332
sg3321
I14
sg3322
I3
sg3323
I2
sg3324
(lp3737
I35
aI57
aI2
asbag0
(g3306
g2
Ntp3738
Rp3739
(dp3740
g3310
I3000
sg3311
I32
sg3312
I0
sg3313
(lp3741
g3316
ag3316
ag3346
asg3317
I4
sg3318
I8
sg3319
g3332
sg3321
I11
sg3322
I12
sg3323
I1
sg3324
(lp3742
I25
aI67
aI71
asbag0
(g3306
g2
Ntp3743
Rp3744
(dp3745
g3310
I5700
sg3311
I83
sg3312
I0
sg3313
(lp3746
g3409
ag3396
ag3316
asg3317
I6
sg3318
I3
sg3319
g3332
sg3321
I14
sg3322
I8
sg3323
I4
sg3324
(lp3747
I41
aI17
aI77
asbag0
(g3306
g2
Ntp3748
Rp3749
(dp3750
g3310
I4560
sg3311
I82
sg3312
I0
sg3313
(lp3751
g3330
ag3372
ag3316
asg3317
I5
sg3318
I16
sg3319
g3320
sg3321
I14
sg3322
I16
sg3323
I2
sg3324
(lp3752
I57
aI5
aI68
asbag0
(g3306
g2
Ntp3753
Rp3754
(dp3755
g3310
I4500
sg3311
I70
sg3312
I0
sg3313
(lp3756
g3378
ag3339
ag3396
asg3317
I11
sg3318
I3
sg3319
g3332
sg3321
I14
sg3322
I4
sg3323
I3
sg3324
(lp3757
I23
aI66
aI20
asbag0
(g3306
g2
Ntp3758
Rp3759
(dp3760
g3310
I7500
sg3311
I41
sg3312
I0
sg3313
(lp3761
g3316
ag3409
ag3450
asg3317
I10
sg3318
I13
sg3319
g3332
sg3321
I12
sg3322
I4
sg3323
I4
sg3324
(lp3762
I87
aI91
aI98
asbag0
(g3306
g2
Ntp3763
Rp3764
(dp3765
g3310
I3500
sg3311
I27
sg3312
I0
sg3313
(lp3766
g3395
ag3353
ag3352
asg3317
I4
sg3318
I10
sg3319
g3320
sg3321
I11
sg3322
I12
sg3323
I3
sg3324
(lp3767
I18
aI79
aI8
asbag0
(g3306
g2
Ntp3768
Rp3769
(dp3770
g3310
I5700
sg3311
I80
sg3312
I0
sg3313
(lp3771
g3395
ag3372
ag3408
asg3317
I8
sg3318
I13
sg3319
g3332
sg3321
I9
sg3322
I12
sg3323
I4
sg3324
(lp3772
I3
aI85
aI52
asbag0
(g3306
g2
Ntp3773
Rp3774
(dp3775
g3310
I5600
sg3311
I40
sg3312
I0
sg3313
(lp3776
g3316
ag3396
ag3352
asg3317
I9
sg3318
I18
sg3319
g3320
sg3321
I20
sg3322
I14
sg3323
I2
sg3324
(lp3777
I17
aI33
aI36
asbag0
(g3306
g2
Ntp3778
Rp3779
(dp3780
g3310
I0
sg3311
I4
sg3312
I0
sg3313
(lp3781
g3450
ag3352
ag3352
asg3317
I2
sg3318
I14
sg3319
g3320
sg3321
I22
sg3322
I9
sg3323
I0
sg3324
(lp3782
I2
aI33
aI31
asbag0
(g3306
g2
Ntp3783
Rp3784
(dp3785
g3310
I0
sg3311
I0
sg3312
I0
sg3313
(lp3786
g3397
ag3359
ag3450
asg3317
I9
sg3318
I6
sg3319
g3320
sg3321
I10
sg3322
I8
sg3323
I0
sg3324
(lp3787
I23
aI25
aI63
asbag0
(g3306
g2
Ntp3788
Rp3789
(dp3790
g3310
I4500
sg3311
I55
sg3312
I0
sg3313
(lp3791
g3340
ag3316
ag3496
asg3317
I14
sg3318
I17
sg3319
g3320
sg3321
I9
sg3322
I14
sg3323
I3
sg3324
(lp3792
I88
aI97
aI48
asbag0
(g3306
g2
Ntp3793
Rp3794
(dp3795
g3310
I4500
sg3311
I54
sg3312
I0
sg3313
(lp3796
g3395
ag3359
ag3496
asg3317
I8
sg3318
I19
sg3319
g3320
sg3321
I8
sg3322
I5
sg3323
I3
sg3324
(lp3797
I58
aI78
aI68
asbag0
(g3306
g2
Ntp3798
Rp3799
(dp3800
g3310
I4500
sg3311
I65
sg3312
I0
sg3313
(lp3801
g3408
ag3372
ag3331
asg3317
I16
sg3318
I15
sg3319
g3320
sg3321
I11
sg3322
I14
sg3323
I3
sg3324
(lp3802
I10
aI88
aI35
asbag0
(g3306
g2
Ntp3803
Rp3804
(dp3805
g3310
I3000
sg3311
I52
sg3312
I0
sg3313
(lp3806
g3353
ag3330
ag3378
asg3317
I14
sg3318
I15
sg3319
g3320
sg3321
I14
sg3322
I16
sg3323
I1
sg3324
(lp3807
I16
aI22
aI0
asbag0
(g3306
g2
Ntp3808
Rp3809
(dp3810
g3310
I0
sg3311
I17
sg3312
I0
sg3313
(lp3811
g3339
ag3496
ag3359
asg3317
I16
sg3318
I13
sg3319
g3320
sg3321
I16
sg3322
I4
sg3323
I0
sg3324
(lp3812
I3
aI84
aI70
asbag0
(g3306
g2
Ntp3813
Rp3814
(dp3815
g3310
I4800
sg3311
I31
sg3312
I0
sg3313
(lp3816
g3450
ag3384
ag3372
asg3317
I10
sg3318
I11
sg3319
g3320
sg3321
I14
sg3322
I4
sg3323
I2
sg3324
(lp3817
I42
aI8
aI53
asbag0
(g3306
g2
Ntp3818
Rp3819
(dp3820
g3310
I5700
sg3311
I52
sg3312
I0
sg3313
(lp3821
g3359
ag3409
ag3330
asg3317
I3
sg3318
I21
sg3319
g3320
sg3321
I14
sg3322
I8
sg3323
I4
sg3324
(lp3822
I7
aI73
aI88
asbag0
(g3306
g2
Ntp3823
Rp3824
(dp3825
g3310
I4800
sg3311
I31
sg3312
I0
sg3313
(lp3826
g3352
ag3395
ag3340
asg3317
I11
sg3318
I3
sg3319
g3320
sg3321
I22
sg3322
I10
sg3323
I2
sg3324
(lp3827
I59
aI99
aI55
asbag0
(g3306
g2
Ntp3828
Rp3829
(dp3830
g3310
I4500
sg3311
I60
sg3312
I0
sg3313
(lp3831
g3330
ag3365
ag3315
asg3317
I8
sg3318
I16
sg3319
g3320
sg3321
I10
sg3322
I8
sg3323
I3
sg3324
(lp3832
I57
aI37
aI84
asbag0
(g3306
g2
Ntp3833
Rp3834
(dp3835
g3310
I3000
sg3311
I57
sg3312
I0
sg3313
(lp3836
g3395
ag3346
ag3365
asg3317
I10
sg3318
I18
sg3319
g3320
sg3321
I11
sg3322
I12
sg3323
I1
sg3324
(lp3837
I65
aI48
aI45
asbag0
(g3306
g2
Ntp3838
Rp3839
(dp3840
g3310
I7500
sg3311
I46
sg3312
I0
sg3313
(lp3841
g3365
ag3353
ag3408
asg3317
I11
sg3318
I20
sg3319
g3320
sg3321
I11
sg3322
I4
sg3323
I4
sg3324
(lp3842
I70
aI12
aI32
asbasbsS'symulowana_firma'
p3843
g0
(c__main__
firma
p3844
g2
Ntp3845
Rp3846
(dp3847
S'trasy'
p3848
g0
(c__main__
trasy
p3849
g2
Ntp3850
Rp3851
(dp3852
g3848
(lp3853
g0
(c__main__
trasa
p3854
g2
Ntp3855
Rp3856
(dp3857
S'elementy'
p3858
(lp3859
g0
(c__main__
fabryka
p3860
g2
Ntp3861
Rp3862
(dp3863
S'koszt'
p3864
I0
sS'lokalizacja'
p3865
(lp3866
I10
aI3
asS'symbol'
p3867
csympy.core.symbol
Symbol
p3868
(S'f1'
p3869
tp3870
Rp3871
(dp3872
S'_assumptions'
p3873
g0
(csympy.core.assumptions
StdFactKB
p3874
c__builtin__
dict
p3875
(dp3876
S'commutative'
p3877
I01
stp3878
Rp3879
sbsS'efekt_skali'
p3880
I0
sg1079
g323
sS'nazwa'
p3881
g1957
sS'oblozenie'
p3882
I0
sbag0
(c__main__
magazyn
p3883
g2
Ntp3884
Rp3885
(dp3886
g3864
I0
sg3865
(lp3887
I14
aI10
asg3867
g3868
(S'm1'
p3888
tp3889
Rp3890
(dp3891
g3873
g0
(g3874
g3875
(dp3892
g3877
I01
stp3893
Rp3894
sbsg3880
I0
sg1079
g851
sg3881
g1593
sg3882
I0
sbag0
(c__main__
sklep
p3895
g2
Ntp3896
Rp3897
(dp3898
g3864
I0
sg3865
(lp3899
I14
aI6
asg1079
g422
sg3867
g3868
(S's1'
p3900
tp3901
Rp3902
(dp3903
g3873
g0
(g3874
g3875
(dp3904
g3877
I01
stp3905
Rp3906
sbsg3880
I0
sS'sklad'
p3907
(dp3908
sS'klienci_historycznie'
p3909
(lp3910
(lp3911
asS'klienci'
p3912
(lp3913
sS'przewidywana_sprzedaz'
p3914
I0
sg3881
g1829
sS'sprzedaz'
p3915
(dp3916
sg3882
I0
sbag0
(c__main__
sciezka
p3917
g2
Ntp3918
Rp3919
(dp3920
g3864
I0
sS'poczatek'
p3921
g3862
sg3867
g3868
(S'r1'
p3922
tp3923
Rp3924
(dp3925
g3873
g0
(g3874
g3875
(dp3926
g3877
I01
stp3927
Rp3928
sbsg3880
I0
sS'odleglosc'
p3929
I64
sS'koniec'
p3930
g3885
sg3882
I0
sbag0
(g3917
g2
Ntp3931
Rp3932
(dp3933
g3864
I0
sg3921
g3885
sg3867
g3868
(S'r3'
p3934
tp3935
Rp3936
(dp3937
g3873
g0
(g3874
g3875
(dp3938
g3877
I01
stp3939
Rp3940
sbsg3880
I0
sg3929
I47
sg3930
g3897
sg3882
I0
sbasg3867
g3868
(S't1'
p3941
tp3942
Rp3943
(dp3944
g3873
g0
(g3874
g3875
(dp3945
g3877
I01
stp3946
Rp3947
sbsg3882
I0
sS'udzial'
p3948
I0
sbag0
(g3854
g2
Ntp3949
Rp3950
(dp3951
g3858
(lp3952
g3862
ag0
(g3883
g2
Ntp3953
Rp3954
(dp3955
g3864
I0
sg3865
(lp3956
I5
aI19
asg3867
g3868
(S'm2'
p3957
tp3958
Rp3959
(dp3960
g3873
g0
(g3874
g3875
(dp3961
g3877
I01
stp3962
Rp3963
sbsg3880
I0
sg1079
g841
sg3881
g1593
sg3882
I0
sbag3897
ag0
(g3917
g2
Ntp3964
Rp3965
(dp3966
g3864
I0
sg3921
g3862
sg3867
g3868
(S'r2'
p3967
tp3968
Rp3969
(dp3970
g3873
g0
(g3874
g3875
(dp3971
g3877
I01
stp3972
Rp3973
sbsg3880
I0
sg3929
I114
sg3930
g3954
sg3882
I0
sbag0
(g3917
g2
Ntp3974
Rp3975
(dp3976
g3864
I0
sg3921
g3954
sg3867
g3868
(S'r4'
p3977
tp3978
Rp3979
(dp3980
g3873
g0
(g3874
g3875
(dp3981
g3877
I01
stp3982
Rp3983
sbsg3880
I0
sg3929
I97
sg3930
g3897
sg3882
I0
sbasg3867
g3868
(S't2'
p3984
tp3985
Rp3986
(dp3987
g3873
g0
(g3874
g3875
(dp3988
g3877
I01
stp3989
Rp3990
sbsg3882
I0
sg3948
I0
sbag0
(g3854
g2
Ntp3991
Rp3992
(dp3993
g3858
(lp3994
g3862
ag3885
ag0
(g3895
g2
Ntp3995
Rp3996
(dp3997
g3864
I0
sg3865
(lp3998
I13
aI22
asg1079
g535
sg3867
g3868
(S's2'
p3999
tp4000
Rp4001
(dp4002
g3873
g0
(g3874
g3875
(dp4003
g3877
I01
stp4004
Rp4005
sbsg3880
I0
sg3907
(dp4006
sg3909
(lp4007
(lp4008
asg3912
(lp4009
sg3914
I0
sg3881
g1829
sg3915
(dp4010
sg3882
I0
sbag3919
ag0
(g3917
g2
Ntp4011
Rp4012
(dp4013
g3864
I0
sg3921
g3885
sg3867
g3868
(S'r5'
p4014
tp4015
Rp4016
(dp4017
g3873
g0
(g3874
g3875
(dp4018
g3877
I01
stp4019
Rp4020
sbsg3880
I0
sg3929
I24
sg3930
g3996
sg3882
I0
sbasg3867
g3868
(S't3'
p4021
tp4022
Rp4023
(dp4024
g3873
g0
(g3874
g3875
(dp4025
g3877
I01
stp4026
Rp4027
sbsg3882
I0
sg3948
I0
sbag0
(g3854
g2
Ntp4028
Rp4029
(dp4030
g3858
(lp4031
g3862
ag3954
ag3996
ag3965
ag0
(g3917
g2
Ntp4032
Rp4033
(dp4034
g3864
I0
sg3921
g3954
sg3867
g3868
(S'r6'
p4035
tp4036
Rp4037
(dp4038
g3873
g0
(g3874
g3875
(dp4039
g3877
I01
stp4040
Rp4041
sbsg3880
I0
sg3929
I74
sg3930
g3996
sg3882
I0
sbasg3867
g3868
(S't4'
p4042
tp4043
Rp4044
(dp4045
g3873
g0
(g3874
g3875
(dp4046
g3877
I01
stp4047
Rp4048
sbsg3882
I0
sg3948
I0
sbag0
(g3854
g2
Ntp4049
Rp4050
(dp4051
g3858
(lp4052
g3862
ag3885
ag0
(g3895
g2
Ntp4053
Rp4054
(dp4055
g3864
I0
sg3865
(lp4056
I8
aI16
asg1079
g729
sg3867
g3868
(S's3'
p4057
tp4058
Rp4059
(dp4060
g3873
g0
(g3874
g3875
(dp4061
g3877
I01
stp4062
Rp4063
sbsg3880
I0
sg3907
(dp4064
sg3909
(lp4065
(lp4066
asg3912
(lp4067
sg3914
I0
sg3881
g1829
sg3915
(dp4068
sg3882
I0
sbag3919
ag0
(g3917
g2
Ntp4069
Rp4070
(dp4071
g3864
I0
sg3921
g3885
sg3867
g3868
(S'r7'
p4072
tp4073
Rp4074
(dp4075
g3873
g0
(g3874
g3875
(dp4076
g3877
I01
stp4077
Rp4078
sbsg3880
I0
sg3929
I13
sg3930
g4054
sg3882
I0
sbasg3867
g3868
(S't5'
p4079
tp4080
Rp4081
(dp4082
g3873
g0
(g3874
g3875
(dp4083
g3877
I01
stp4084
Rp4085
sbsg3882
I0
sg3948
I0
sbag0
(g3854
g2
Ntp4086
Rp4087
(dp4088
g3858
(lp4089
g3862
ag3954
ag4054
ag3965
ag0
(g3917
g2
Ntp4090
Rp4091
(dp4092
g3864
I0
sg3921
g3954
sg3867
g3868
(S'r8'
p4093
tp4094
Rp4095
(dp4096
g3873
g0
(g3874
g3875
(dp4097
g3877
I01
stp4098
Rp4099
sbsg3880
I0
sg3929
I63
sg3930
g4054
sg3882
I0
sbasg3867
g3868
(S't6'
p4100
tp4101
Rp4102
(dp4103
g3873
g0
(g3874
g3875
(dp4104
g3877
I01
stp4105
Rp4106
sbsg3882
I0
sg3948
I0
sbasS'drogi'
p4107
(lp4108
g3919
ag3965
ag3932
ag3975
ag4012
ag4033
ag4070
ag4091
asbsS'sklepy'
p4109
(lp4110
g3897
ag3996
ag4054
asS'wyniki'
p4111
(lp4112
sS'cena'
p4113
I20
sS'produkt'
p4114
g0
(c__main__
produkt
p4115
g2
Ntp4116
Rp4117
(dp4118
g3881
S'Symulowane'
p4119
sS'macierz_cech'
p4120
(lp4121
g4119
aI2
aI4
aI1
aI1
aI0
aI0
aI1
aI3
asbsS'magazyny'
p4122
(lp4123
g3885
ag3954
asS'fabryki'
p4124
(lp4125
g3862
asbsS'tura'
p4126
I0
sS'produkty_na_rynku'
p4127
(lp4128
g4121
a(lp4129
S'Gornik'
p4130
aI1
aI5
aI2
aI0
aI0
aI1
aI0
aI1
aa(lp4131
S'Slaskie'
p4132
aI3
aI4
aI5
aI1
aI0
aI1
aI0
aI3
aa(lp4133
S'Mocne'
p4134
aI4
aI1
aI1
aI1
aI0
aI1
aI0
aI2
aa(lp4135
S'Lebskie'
p4136
aI2
aI1
aI3
aI1
aI0
aI1
aI0
aI2
aa(lp4137
S'Pszczeniczne'
p4138
aI5
aI4
aI2
aI0
aI1
aI1
aI0
aI1
aa(lp4139
S'Baltyckie'
p4140
aI5
aI3
aI2
aI0
aI1
aI1
aI0
aI5
aasb.