ccopy_reg
_reconstructor
p0
(cgenerowanie_swiata
swiat
p1
c__builtin__
object
p2
Ntp3
Rp4
(dp5
S'nodes'
p6
(dp7
(I7
I3
tp8
(lp9
(I7
I4
tp10
as(I6
I9
tp11
(lp12
(I5
I9
tp13
as(I11
I11
tp14
(lp15
(I11
I12
tp16
as(I10
I17
tp17
(lp18
(lp19
I11
aI17
aa(lp20
I9
aI17
aas(I16
I6
tp21
(lp22
(I15
I6
tp23
as(I7
I12
tp24
(lp25
(lp26
I8
aI12
aa(lp27
I7
aI13
aa(lp28
I7
aI11
aas(I14
I4
tp29
(lp30
(lp31
I15
aI4
aa(lp32
I13
aI4
aas(I13
I4
tp33
(lp34
(lp35
I14
aI4
aa(lp36
I12
aI4
aas(I12
I12
tp37
(lp38
(I11
I12
tp39
as(I14
I17
tp40
(lp41
(I14
I18
tp42
as(I17
I20
tp43
(lp44
(I18
I20
tp45
as(I13
I17
tp46
(lp47
(lp48
I12
aI17
aa(lp49
I13
aI18
aa(lp50
I13
aI16
aas(I2
I22
tp51
(lp52
(lp53
I3
aI22
aa(lp54
I2
aI21
aas(I18
I19
tp55
(lp56
(lp57
I18
aI20
aa(lp58
I18
aI18
aas(I16
I10
tp59
(lp60
(I15
I10
tp61
as(I3
I7
tp62
(lp63
(I4
I7
tp64
as(I2
I5
tp65
(lp66
(lp67
I2
aI6
aa(lp68
I2
aI4
aas(I8
I5
tp69
(lp70
(I8
I4
tp71
as(I15
I14
tp72
(lp73
(lp74
I15
aI15
aa(lp75
I15
aI13
aas(I5
I8
tp76
(lp77
(I5
I7
tp78
as(I19
I19
tp79
(lp80
(I18
I19
tp81
as(I10
I8
tp82
(lp83
(I10
I7
tp84
as(I6
I7
tp85
(lp86
(lp87
I7
aI7
aa(lp88
I5
aI7
aa(lp89
I6
aI6
aas(I5
I5
tp90
(lp91
(I6
I5
tp92
as(I4
I19
tp93
(lp94
(lp95
I4
aI20
aa(lp96
I4
aI18
aas(I11
I5
tp97
(lp98
(I11
I4
tp99
as(I10
I7
tp100
(lp101
(lp102
I11
aI7
aa(lp103
I9
aI7
aas(I9
I21
tp104
(lp105
(lp106
I10
aI21
aa(lp107
I8
aI21
aas(I7
I6
tp108
(lp109
(I6
I6
tp110
as(I6
I10
tp111
(lp112
(I7
I10
tp113
as(I5
I18
tp114
(lp115
(I5
I17
tp116
as(I12
I6
tp117
(lp118
(I12
I7
tp119
as(I11
I22
tp120
(lp121
(I11
I21
tp122
as(I10
I18
tp123
(lp124
(I10
I19
tp125
as(I7
I19
tp126
(lp127
(lp128
I7
aI20
aa(lp129
I7
aI18
aas(I13
I7
tp130
(lp131
(lp132
I12
aI7
aa(lp133
I13
aI8
aa(lp134
I13
aI6
aas(I12
I17
tp135
(lp136
(lp137
I13
aI17
aa(lp138
I11
aI17
aas(I15
I4
tp139
(lp140
(lp141
I14
aI4
aa(lp142
I15
aI5
aas(I13
I20
tp143
(lp144
(I13
I21
tp145
as(I14
I21
tp146
(lp147
(lp148
I15
aI21
aa(lp149
I13
aI21
aas(I8
I15
tp150
(lp151
(I7
I15
tp152
as(I4
I10
tp153
(lp154
(I4
I9
tp155
as(I3
I2
tp156
(lp157
(lp158
I4
aI2
aa(lp159
I2
aI2
aas(I2
I6
tp160
(lp161
(lp162
I2
aI7
aa(lp163
I2
aI5
aas(I15
I18
tp164
(lp165
(lp166
I16
aI18
aa(lp167
I14
aI18
aas(I5
I11
tp168
(lp169
(lp170
I5
aI12
aa(lp171
I5
aI10
aas(I4
I5
tp172
(lp173
(lp174
I4
aI6
aa(lp175
I4
aI4
aas(I10
I13
tp176
(lp177
(I10
I12
tp178
as(I9
I3
tp179
(lp180
(I9
I4
tp181
as(I8
I21
tp182
(lp183
(lp184
I9
aI21
aa(lp185
I7
aI21
aas(I4
I16
tp186
(lp187
(I4
I17
tp188
as(I9
I16
tp189
(lp190
(I9
I17
tp191
as(I7
I5
tp192
(lp193
(I6
I5
tp194
as(I14
I15
tp195
(lp196
(I13
I15
tp197
as(I5
I21
tp198
(lp199
(I4
I21
tp200
as(I12
I11
tp201
(lp202
(I13
I11
tp203
as(I11
I21
tp204
(lp205
(lp206
I12
aI21
aa(lp207
I10
aI21
aas(I7
I22
tp208
(lp209
(I7
I21
tp210
as(I13
I10
tp211
(lp212
(lp213
I13
aI11
aa(lp214
I13
aI9
aas(I12
I22
tp215
(lp216
(I12
I21
tp217
as(I2
I17
tp218
(lp219
(lp220
I2
aI18
aa(lp221
I2
aI16
aas(I14
I16
tp222
(lp223
(I15
I16
tp224
as(I17
I18
tp225
(lp226
(I16
I18
tp227
as(I16
I8
tp228
(lp229
(I15
I8
tp230
as(I8
I12
tp231
(lp232
(lp233
I9
aI12
aa(lp234
I7
aI12
aas(I18
I16
tp235
(lp236
(lp237
I17
aI16
aa(lp238
I18
aI17
aas(I4
I15
tp239
(lp240
(lp241
I5
aI15
aa(lp242
I3
aI15
aas(I16
I18
tp243
(lp244
(lp245
I15
aI18
aa(lp246
I16
aI19
aas(I5
I14
tp247
(lp248
(lp249
I5
aI15
aa(lp250
I5
aI13
aas(I19
I16
tp251
(lp252
(I18
I16
tp253
as(I3
I18
tp254
(lp255
(I2
I18
tp256
as(I8
I18
tp257
(lp258
(I8
I17
tp259
as(I6
I13
tp260
(lp261
(I5
I13
tp262
as(I4
I21
tp263
(lp264
(lp265
I4
aI22
aa(lp266
I4
aI20
aas(I9
I19
tp267
(lp268
(lp269
I10
aI19
aas(I7
I8
tp270
(lp271
(lp272
I7
aI9
aa(lp273
I7
aI7
aas(I6
I16
tp274
(lp275
(I7
I16
tp276
as(I12
I8
tp277
(lp278
(I13
I8
tp279
as(I11
I16
tp280
(lp281
(I11
I17
tp282
as(I16
I17
tp283
(lp284
(I16
I18
tp285
as(I7
I21
tp286
(lp287
(lp288
I8
aI21
aa(lp289
I7
aI20
aas(I13
I13
tp290
(lp291
(lp292
I13
aI14
aa(lp293
I13
aI12
aas(I2
I18
tp294
(lp295
(lp296
I2
aI19
aa(lp297
I2
aI17
aas(I18
I15
tp298
(lp299
(I18
I16
tp300
as(I16
I21
tp301
(lp302
(lp303
I17
aI21
aa(lp304
I15
aI21
aas(I8
I9
tp305
(lp306
(I7
I9
tp307
as(I4
I12
tp308
(lp309
(I5
I12
tp310
as(I9
I4
tp311
(lp312
(lp313
I10
aI4
aa(lp314
I8
aI4
aas(I15
I19
tp315
(lp316
(I15
I18
tp317
as(I16
I13
tp318
(lp319
(I15
I13
tp320
as(I3
I17
tp321
(lp322
(I2
I17
tp323
as(I10
I3
tp324
(lp325
(I10
I4
tp326
as(I14
I9
tp327
(lp328
(I13
I9
tp329
as(I16
I7
tp330
(lp331
(I15
I7
tp332
as(I6
I14
tp333
(lp334
(I7
I14
tp335
as(I19
I18
tp336
(lp337
(I18
I18
tp338
as(I15
I22
tp339
(lp340
(I15
I21
tp341
as(I7
I15
tp342
(lp343
(lp344
I7
aI16
aa(lp345
I7
aI14
aas(I14
I5
tp346
(lp347
(I14
I4
tp348
as(I13
I3
tp349
(lp350
(I13
I4
tp351
as(I12
I13
tp352
(lp353
(I13
I13
tp354
as(I16
I12
tp355
(lp356
(I15
I12
tp357
as(I13
I16
tp358
(lp359
(lp360
I13
aI17
aa(lp361
I13
aI15
aas(I14
I19
tp362
(lp363
(I13
I19
tp364
as(I16
I22
tp365
(lp366
(I16
I21
tp367
as(I3
I6
tp368
(lp369
(I4
I6
tp370
as(I2
I2
tp371
(lp372
(lp373
I3
aI2
aa(lp374
I2
aI3
aas(I8
I6
tp375
(lp376
(I8
I7
tp377
as(I9
I7
tp378
(lp379
(lp380
I10
aI7
aa(lp381
I8
aI7
aas(I6
I4
tp382
(lp383
(lp384
I7
aI4
aa(lp385
I6
aI5
aas(I5
I4
tp386
(lp387
(I6
I4
tp388
as(I11
I4
tp389
(lp390
(lp391
I12
aI4
aa(lp392
I10
aI4
aas(I10
I4
tp393
(lp394
(lp395
I11
aI4
aa(lp396
I9
aI4
aas(I9
I20
tp397
(lp398
(I9
I19
tp399
as(I16
I4
tp400
(lp401
(I15
I4
tp402
as(I6
I11
tp403
(lp404
(I5
I11
tp405
as(I5
I17
tp406
(lp407
(lp408
I4
aI17
aas(I12
I7
tp409
(lp410
(lp411
I13
aI7
aa(lp412
I11
aI7
aas(I19
I17
tp413
(lp414
(I18
I17
tp415
as(I10
I19
tp416
(lp417
(lp418
I11
aI19
aa(lp419
I9
aI19
aas(I7
I18
tp420
(lp421
(lp422
I7
aI19
aa(lp423
I7
aI17
aas(I14
I6
tp424
(lp425
(I15
I6
tp426
as(I13
I6
tp427
(lp428
(lp429
I13
aI7
aas(I12
I18
tp430
(lp431
(I13
I18
tp432
as(I17
I22
tp433
(lp434
(I17
I21
tp435
as(I15
I7
tp436
(lp437
(lp438
I15
aI8
aa(lp439
I15
aI6
aas(I13
I19
tp440
(lp441
(lp442
I12
aI19
aa(lp443
I13
aI18
aas(I18
I21
tp444
(lp445
(lp446
I17
aI21
aa(lp447
I18
aI20
aas(I4
I11
tp448
(lp449
(I5
I11
tp450
as(I3
I5
tp451
(lp452
(I2
I5
tp453
as(I2
I7
tp454
(lp455
(lp456
I2
aI8
aa(lp457
I2
aI6
aas(I9
I13
tp458
(lp459
(I9
I12
tp460
as(I8
I3
tp461
(lp462
(I8
I4
tp463
as(I5
I10
tp464
(lp465
(lp466
I5
aI11
aa(lp467
I5
aI9
aas(I4
I6
tp468
(lp469
(lp470
I4
aI7
aa(lp471
I4
aI5
aas(I3
I22
tp472
(lp473
(lp474
I4
aI22
aa(lp475
I2
aI22
aas(I18
I22
tp476
(lp477
(I18
I21
tp478
as(I8
I22
tp479
(lp480
(I8
I21
tp481
as(I5
I7
tp482
(lp483
(lp484
I6
aI7
aa(lp485
I4
aI7
aas(I4
I17
tp486
(lp487
(lp488
I5
aI17
aa(lp489
I4
aI18
aas(I11
I3
tp490
(lp491
(I11
I4
tp492
as(I14
I8
tp493
(lp494
(I15
I8
tp495
as(I7
I4
tp496
(lp497
(lp498
I8
aI4
aa(lp499
I6
aI4
aas(I6
I20
tp500
(lp501
(I7
I20
tp502
as(I5
I20
tp503
(lp504
(I4
I20
tp505
as(I12
I4
tp506
(lp507
(lp508
I13
aI4
aa(lp509
I11
aI4
aas(I11
I20
tp510
(lp511
(I11
I21
tp512
as(I10
I20
tp513
(lp514
(I10
I19
tp515
as(I7
I17
tp516
(lp517
(lp518
I8
aI17
aa(lp519
I7
aI18
aa(lp520
I7
aI16
aas(I14
I3
tp521
(lp522
(I14
I4
tp523
as(I13
I9
tp524
(lp525
(lp526
I13
aI10
aa(lp527
I13
aI8
aas(I15
I21
tp528
(lp529
(lp530
I16
aI21
aa(lp531
I14
aI21
aas(I17
I17
tp532
(lp533
(I17
I16
tp534
as(I13
I22
tp535
(lp536
(I13
I21
tp537
as(I3
I15
tp538
(lp539
(lp540
I4
aI15
aa(lp541
I2
aI15
aas(I14
I18
tp542
(lp543
(lp544
I15
aI18
aa(lp545
I13
aI18
aas(I8
I13
tp546
(lp547
(I7
I13
tp548
as(I4
I8
tp549
(lp550
(I4
I7
tp551
as(I2
I8
tp552
(lp553
(lp554
I2
aI9
aa(lp555
I2
aI7
aas(I9
I8
tp556
(lp557
(I9
I7
tp558
as(I5
I13
tp559
(lp560
(lp561
I5
aI14
aa(lp562
I5
aI12
aas(I3
I21
tp563
(lp564
(I4
I21
tp565
as(I8
I19
tp566
(lp567
(I9
I19
tp568
as(I15
I13
tp569
(lp570
(lp571
I15
aI14
aa(lp572
I15
aI12
aas(I4
I22
tp573
(lp574
(lp575
I3
aI22
aa(lp576
I4
aI21
aas(I14
I20
tp577
(lp578
(I14
I21
tp579
as(I9
I18
tp580
(lp581
(I9
I17
tp582
as(I7
I11
tp583
(lp584
(lp585
I7
aI12
aa(lp586
I7
aI10
aas(I6
I17
tp587
(lp588
(I5
I17
tp589
as(I12
I9
tp590
(lp591
(I13
I9
tp592
as(I11
I19
tp593
(lp594
(lp595
I12
aI19
aa(lp596
I10
aI19
aas(I16
I19
tp597
(lp598
(lp599
I16
aI18
aas(I17
I15
tp600
(lp601
(I17
I16
tp602
as(I7
I20
tp603
(lp604
(lp605
I7
aI21
aa(lp606
I7
aI19
aas(I13
I12
tp607
(lp608
(lp609
I13
aI13
aa(lp610
I13
aI11
aas(I12
I20
tp611
(lp612
(I12
I21
tp613
as(I2
I19
tp614
(lp615
(lp616
I2
aI20
aa(lp617
I2
aI18
aas(I15
I17
tp618
(lp619
(I15
I16
tp620
as(I15
I11
tp621
(lp622
(lp623
I15
aI12
aa(lp624
I15
aI10
aas(I19
I20
tp625
(lp626
(I18
I20
tp627
as(I3
I10
tp628
(lp629
(I3
I9
tp630
as(I8
I10
tp631
(lp632
(I7
I10
tp633
as(I15
I12
tp634
(lp635
(lp636
I15
aI13
aa(lp637
I15
aI11
aas(I4
I13
tp638
(lp639
(I5
I13
tp640
as(I9
I11
tp641
(lp642
(I9
I12
tp643
as(I3
I16
tp644
(lp645
(I2
I16
tp646
as(I8
I16
tp647
(lp648
(I8
I17
tp649
as(I6
I15
tp650
(lp651
(I7
I15
tp652
as(I16
I9
tp653
(lp654
(I15
I9
tp655
as(I12
I3
tp656
(lp657
(I12
I4
tp658
as(I11
I13
tp659
(lp660
(I11
I12
tp661
as(I14
I11
tp662
(lp663
(I13
I11
tp664
as(I7
I14
tp665
(lp666
(lp667
I7
aI15
aa(lp668
I7
aI13
aas(I6
I18
tp669
(lp670
(I7
I18
tp671
as(I12
I14
tp672
(lp673
(I13
I14
tp674
as(I15
I10
tp675
(lp676
(lp677
I15
aI11
aa(lp678
I15
aI9
aas(I15
I3
tp679
(lp680
(I15
I4
tp681
as(I13
I15
tp682
(lp683
(lp684
I13
aI16
aa(lp685
I13
aI14
aas(I2
I20
tp686
(lp687
(lp688
I2
aI21
aa(lp689
I2
aI19
aas(I18
I17
tp690
(lp691
(lp692
I18
aI18
aa(lp693
I18
aI16
aas(I3
I9
tp694
(lp695
(lp696
I4
aI9
aa(lp697
I2
aI9
aas(I2
I3
tp698
(lp699
(lp700
I2
aI4
aa(lp701
I2
aI2
aas(I14
I13
tp702
(lp703
(I15
I13
tp704
as(I8
I7
tp705
(lp706
(lp707
I9
aI7
aa(lp708
I7
aI7
aas(I4
I2
tp709
(lp710
(lp711
I3
aI2
aa(lp712
I4
aI3
aas(I2
I14
tp713
(lp714
(I2
I15
tp715
as(I9
I6
tp716
(lp717
(I9
I7
tp718
as(I6
I5
tp719
(lp720
(lp721
I6
aI6
aa(lp722
I6
aI4
aas(I5
I3
tp723
(lp724
(I4
I3
tp725
as(I11
I7
tp726
(lp727
(lp728
I12
aI7
aa(lp729
I10
aI7
aas(I10
I5
tp730
(lp731
(I10
I4
tp732
as(I16
I5
tp733
(lp734
(I15
I5
tp735
as(I6
I8
tp736
(lp737
(I7
I8
tp738
as(I5
I16
tp739
(lp740
(I5
I15
tp741
as(I11
I8
tp742
(lp743
(I11
I7
tp744
as(I10
I16
tp745
(lp746
(I10
I17
tp747
as(I7
I13
tp748
(lp749
(lp750
I7
aI14
aa(lp751
I7
aI12
aas(I14
I7
tp752
(lp753
(I13
I7
tp754
as(I13
I5
tp755
(lp756
(I13
I4
tp757
as(I12
I19
tp758
(lp759
(lp760
I13
aI19
aa(lp761
I11
aI19
aas(I18
I20
tp762
(lp763
(lp764
I18
aI21
aa(lp765
I18
aI19
aas(I16
I14
tp766
(lp767
(I15
I14
tp768
as(I17
I21
tp769
(lp770
(lp771
I18
aI21
aa(lp772
I16
aI21
aas(I15
I6
tp773
(lp774
(lp775
I15
aI7
aa(lp776
I15
aI5
aas(I13
I18
tp777
(lp778
(lp779
I14
aI18
aa(lp780
I13
aI19
aa(lp781
I13
aI17
aas(I18
I18
tp782
(lp783
(lp784
I18
aI19
aa(lp785
I18
aI17
aas(I15
I8
tp786
(lp787
(lp788
I15
aI9
aa(lp789
I15
aI7
aas(I19
I21
tp790
(lp791
(I18
I21
tp792
as(I3
I4
tp793
(lp794
(I2
I4
tp795
as(I2
I4
tp796
(lp797
(lp798
I2
aI5
aa(lp799
I2
aI3
aas(I9
I12
tp800
(lp801
(lp802
I10
aI12
aa(lp803
I8
aI12
aas(I8
I4
tp804
(lp805
(lp806
I9
aI4
aa(lp807
I7
aI4
aas(I5
I9
tp808
(lp809
(lp810
I4
aI9
aa(lp811
I5
aI10
aas(I4
I7
tp812
(lp813
(lp814
I5
aI7
aa(lp815
I4
aI6
aas(I10
I11
tp816
(lp817
(I10
I12
tp818
as(I15
I20
tp819
(lp820
(I15
I21
tp821
as(I6
I6
tp822
(lp823
(lp824
I6
aI7
aa(lp825
I6
aI5
aas(I5
I6
tp826
(lp827
(I4
I6
tp828
as(I4
I18
tp829
(lp830
(lp831
I4
aI19
aa(lp832
I4
aI17
aas(I10
I6
tp833
(lp834
(I10
I7
tp835
as(I9
I22
tp836
(lp837
(I9
I21
tp838
as(I7
I7
tp839
(lp840
(lp841
I8
aI7
aa(lp842
I6
aI7
aa(lp843
I7
aI8
aas(I6
I21
tp844
(lp845
(I7
I21
tp846
as(I5
I19
tp847
(lp848
(I4
I19
tp849
as(I12
I5
tp850
(lp851
(I12
I4
tp852
as(I10
I21
tp853
(lp854
(lp855
I11
aI21
aa(lp856
I9
aI21
aas(I14
I10
tp857
(lp858
(I13
I10
tp859
as(I7
I16
tp860
(lp861
(lp862
I7
aI17
aa(lp863
I7
aI15
aas(I13
I8
tp864
(lp865
(lp866
I13
aI9
aa(lp867
I13
aI7
aas(I12
I16
tp868
(lp869
(I13
I16
tp870
as(I17
I16
tp871
(lp872
(lp873
I18
aI16
aa(lp874
I16
aI16
aas(I15
I5
tp875
(lp876
(lp877
I15
aI6
aa(lp878
I15
aI4
aas(I14
I22
tp879
(lp880
(I14
I21
tp881
as(I13
I21
tp882
(lp883
(lp884
I14
aI21
aa(lp885
I12
aI21
aas(I3
I14
tp886
(lp887
(I3
I15
tp888
as(I8
I14
tp889
(lp890
(I7
I14
tp891
as(I4
I9
tp892
(lp893
(lp894
I5
aI9
aa(lp895
I3
aI9
aas(I3
I3
tp896
(lp897
(I2
I3
tp898
as(I2
I9
tp899
(lp900
(lp901
I3
aI9
aa(lp902
I2
aI8
aas(I14
I12
tp903
(lp904
(I15
I12
tp905
as(I5
I12
tp906
(lp907
(lp908
I5
aI13
aa(lp909
I5
aI11
aas(I4
I4
tp910
(lp911
(lp912
I4
aI5
aa(lp913
I4
aI3
aas(I3
I20
tp914
(lp915
(I4
I20
tp916
as(I10
I12
tp917
(lp918
(lp919
I11
aI12
aa(lp920
I9
aI12
aas(I8
I20
tp921
(lp922
(I8
I21
tp923
as(I6
I3
tp924
(lp925
(I6
I4
tp926
as(I15
I16
tp927
(lp928
(lp929
I16
aI16
aa(lp930
I15
aI15
aas(I9
I17
tp931
(lp932
(lp933
I10
aI17
aa(lp934
I8
aI17
aas(I7
I10
tp935
(lp936
(lp937
I7
aI11
aa(lp938
I7
aI9
aas(I14
I14
tp939
(lp940
(I15
I14
tp941
as(I5
I22
tp942
(lp943
(I4
I22
tp944
as(I12
I10
tp945
(lp946
(I13
I10
tp947
as(I11
I18
tp948
(lp949
(I11
I19
tp950
as(I10
I22
tp951
(lp952
(I10
I21
tp953
as(I15
I15
tp954
(lp955
(lp956
I15
aI16
aa(lp957
I15
aI14
aas(I13
I11
tp958
(lp959
(lp960
I13
aI12
aa(lp961
I13
aI10
aas(I12
I21
tp962
(lp963
(lp964
I13
aI21
aa(lp965
I11
aI21
aas(I2
I16
tp966
(lp967
(lp968
I2
aI17
aa(lp969
I2
aI15
aas(I17
I19
tp970
(lp971
(I16
I19
tp972
as(I8
I11
tp973
(lp974
(I8
I12
tp975
as(I15
I9
tp976
(lp977
(lp978
I15
aI10
aa(lp979
I15
aI8
aas(I16
I11
tp980
(lp981
(I15
I11
tp982
as(I4
I14
tp983
(lp984
(I4
I15
tp985
as(I2
I10
tp986
(lp987
(I2
I9
tp988
as(I5
I15
tp989
(lp990
(lp991
I4
aI15
aa(lp992
I5
aI14
aas(I16
I16
tp993
(lp994
(lp995
I17
aI16
aa(lp996
I15
aI16
aas(I3
I19
tp997
(lp998
(I2
I19
tp999
as(I8
I17
tp1000
(lp1001
(lp1002
I9
aI17
aa(lp1003
I7
aI17
aas(I6
I12
tp1004
(lp1005
(I5
I12
tp1006
as(I4
I20
tp1007
(lp1008
(lp1009
I4
aI21
aa(lp1010
I4
aI19
aas(I11
I12
tp1011
(lp1012
(lp1013
I10
aI12
aas(I7
I9
tp1014
(lp1015
(lp1016
I7
aI10
aa(lp1017
I7
aI8
aas(I6
I19
tp1018
(lp1019
(I7
I19
tp1020
as(I12
I15
tp1021
(lp1022
(I13
I15
tp1023
as(I11
I17
tp1024
(lp1025
(lp1026
I12
aI17
aa(lp1027
I10
aI17
aas(I13
I14
tp1028
(lp1029
(lp1030
I13
aI15
aa(lp1031
I13
aI13
aas(I2
I21
tp1032
(lp1033
(lp1034
I2
aI22
aa(lp1035
I2
aI20
aas(I3
I8
tp1036
(lp1037
(I2
I8
tp1038
as(I8
I8
tp1039
(lp1040
(I7
I8
tp1041
as(I4
I3
tp1042
(lp1043
(lp1044
I4
aI4
aa(lp1045
I4
aI2
aas(I16
I15
tp1046
(lp1047
(I16
I16
tp1048
as(I2
I15
tp1049
(lp1050
(lp1051
I3
aI15
aa(lp1052
I2
aI16
aas(I9
I5
tp1053
(lp1054
(I9
I4
tp1055
as(I5
I2
tp1056
(lp1057
(I4
I2
tp1058
as(I11
I6
tp1059
(lp1060
(I11
I7
tp1061
as(I16
I20
tp1062
(lp1063
(I16
I19
tp1064
assS'mapa'
p1065
(lp1066
(lp1067
g0
(cgenerowanie_swiata
lokalizacja
p1068
g2
Ntp1069
Rp1070
(dp1071
S'y'
p1072
I0
sS'x'
p1073
I0
sS'droga'
p1074
(lp1075
sS'typ'
p1076
S'Pusty'
p1077
sbag0
(g1068
g2
Ntp1078
Rp1079
(dp1080
g1072
I0
sg1073
I1
sg1074
(lp1081
sg1076
g1077
sbag0
(g1068
g2
Ntp1082
Rp1083
(dp1084
g1072
I0
sg1073
I2
sg1074
(lp1085
sg1076
g1077
sbag0
(g1068
g2
Ntp1086
Rp1087
(dp1088
g1072
I0
sg1073
I3
sg1074
(lp1089
sg1076
g1077
sbag0
(g1068
g2
Ntp1090
Rp1091
(dp1092
g1072
I0
sg1073
I4
sg1074
(lp1093
sg1076
g1077
sbag0
(g1068
g2
Ntp1094
Rp1095
(dp1096
g1072
I0
sg1073
I5
sg1074
(lp1097
sg1076
g1077
sbag0
(g1068
g2
Ntp1098
Rp1099
(dp1100
g1072
I0
sg1073
I6
sg1074
(lp1101
sg1076
g1077
sbag0
(g1068
g2
Ntp1102
Rp1103
(dp1104
g1072
I0
sg1073
I7
sg1074
(lp1105
sg1076
g1077
sbag0
(g1068
g2
Ntp1106
Rp1107
(dp1108
g1072
I0
sg1073
I8
sg1074
(lp1109
sg1076
g1077
sbag0
(g1068
g2
Ntp1110
Rp1111
(dp1112
g1072
I0
sg1073
I9
sg1074
(lp1113
sg1076
g1077
sbag0
(g1068
g2
Ntp1114
Rp1115
(dp1116
g1072
I0
sg1073
I10
sg1074
(lp1117
sg1076
g1077
sbag0
(g1068
g2
Ntp1118
Rp1119
(dp1120
g1072
I0
sg1073
I11
sg1074
(lp1121
sg1076
g1077
sbag0
(g1068
g2
Ntp1122
Rp1123
(dp1124
g1072
I0
sg1073
I12
sg1074
(lp1125
sg1076
g1077
sbag0
(g1068
g2
Ntp1126
Rp1127
(dp1128
g1072
I0
sg1073
I13
sg1074
(lp1129
sg1076
g1077
sbag0
(g1068
g2
Ntp1130
Rp1131
(dp1132
g1072
I0
sg1073
I14
sg1074
(lp1133
sg1076
g1077
sbag0
(g1068
g2
Ntp1134
Rp1135
(dp1136
g1072
I0
sg1073
I15
sg1074
(lp1137
sg1076
g1077
sbag0
(g1068
g2
Ntp1138
Rp1139
(dp1140
g1072
I0
sg1073
I16
sg1074
(lp1141
sg1076
g1077
sbag0
(g1068
g2
Ntp1142
Rp1143
(dp1144
g1072
I0
sg1073
I17
sg1074
(lp1145
sg1076
g1077
sbag0
(g1068
g2
Ntp1146
Rp1147
(dp1148
g1072
I0
sg1073
I18
sg1074
(lp1149
sg1076
g1077
sbag0
(g1068
g2
Ntp1150
Rp1151
(dp1152
g1072
I0
sg1073
I19
sg1074
(lp1153
sg1076
g1077
sbag0
(g1068
g2
Ntp1154
Rp1155
(dp1156
g1072
I0
sg1073
I20
sg1074
(lp1157
sg1076
g1077
sbag0
(g1068
g2
Ntp1158
Rp1159
(dp1160
g1072
I0
sg1073
I21
sg1074
(lp1161
sg1076
g1077
sbag0
(g1068
g2
Ntp1162
Rp1163
(dp1164
g1072
I0
sg1073
I22
sg1074
(lp1165
sg1076
g1077
sbag0
(g1068
g2
Ntp1166
Rp1167
(dp1168
g1072
I0
sg1073
I23
sg1074
(lp1169
sg1076
g1077
sbag0
(g1068
g2
Ntp1170
Rp1171
(dp1172
g1072
I0
sg1073
I24
sg1074
(lp1173
sg1076
g1077
sbaa(lp1174
g0
(g1068
g2
Ntp1175
Rp1176
(dp1177
g1072
I1
sg1073
I0
sg1074
(lp1178
sg1076
g1077
sbag0
(g1068
g2
Ntp1179
Rp1180
(dp1181
g1072
I1
sg1073
I1
sg1074
(lp1182
sg1076
g1077
sbag0
(g1068
g2
Ntp1183
Rp1184
(dp1185
g1072
I1
sg1073
I2
sg1074
(lp1186
sg1076
g1077
sbag0
(g1068
g2
Ntp1187
Rp1188
(dp1189
g1072
I1
sg1073
I3
sg1074
(lp1190
sg1076
g1077
sbag0
(g1068
g2
Ntp1191
Rp1192
(dp1193
g1072
I1
sg1073
I4
sg1074
(lp1194
sg1076
g1077
sbag0
(g1068
g2
Ntp1195
Rp1196
(dp1197
g1072
I1
sg1073
I5
sg1074
(lp1198
sg1076
g1077
sbag0
(g1068
g2
Ntp1199
Rp1200
(dp1201
g1072
I1
sg1073
I6
sg1074
(lp1202
sg1076
g1077
sbag0
(g1068
g2
Ntp1203
Rp1204
(dp1205
g1072
I1
sg1073
I7
sg1074
(lp1206
sg1076
g1077
sbag0
(g1068
g2
Ntp1207
Rp1208
(dp1209
g1072
I1
sg1073
I8
sg1074
(lp1210
sg1076
g1077
sbag0
(g1068
g2
Ntp1211
Rp1212
(dp1213
g1072
I1
sg1073
I9
sg1074
(lp1214
sg1076
g1077
sbag0
(g1068
g2
Ntp1215
Rp1216
(dp1217
g1072
I1
sg1073
I10
sg1074
(lp1218
sg1076
g1077
sbag0
(g1068
g2
Ntp1219
Rp1220
(dp1221
g1072
I1
sg1073
I11
sg1074
(lp1222
sg1076
g1077
sbag0
(g1068
g2
Ntp1223
Rp1224
(dp1225
g1072
I1
sg1073
I12
sg1074
(lp1226
sg1076
g1077
sbag0
(g1068
g2
Ntp1227
Rp1228
(dp1229
g1072
I1
sg1073
I13
sg1074
(lp1230
sg1076
g1077
sbag0
(g1068
g2
Ntp1231
Rp1232
(dp1233
g1072
I1
sg1073
I14
sg1074
(lp1234
sg1076
g1077
sbag0
(g1068
g2
Ntp1235
Rp1236
(dp1237
g1072
I1
sg1073
I15
sg1074
(lp1238
sg1076
g1077
sbag0
(g1068
g2
Ntp1239
Rp1240
(dp1241
g1072
I1
sg1073
I16
sg1074
(lp1242
sg1076
g1077
sbag0
(g1068
g2
Ntp1243
Rp1244
(dp1245
g1072
I1
sg1073
I17
sg1074
(lp1246
sg1076
g1077
sbag0
(g1068
g2
Ntp1247
Rp1248
(dp1249
g1072
I1
sg1073
I18
sg1074
(lp1250
sg1076
g1077
sbag0
(g1068
g2
Ntp1251
Rp1252
(dp1253
g1072
I1
sg1073
I19
sg1074
(lp1254
sg1076
g1077
sbag0
(g1068
g2
Ntp1255
Rp1256
(dp1257
g1072
I1
sg1073
I20
sg1074
(lp1258
sg1076
g1077
sbag0
(g1068
g2
Ntp1259
Rp1260
(dp1261
g1072
I1
sg1073
I21
sg1074
(lp1262
sg1076
g1077
sbag0
(g1068
g2
Ntp1263
Rp1264
(dp1265
g1072
I1
sg1073
I22
sg1074
(lp1266
sg1076
g1077
sbag0
(g1068
g2
Ntp1267
Rp1268
(dp1269
g1072
I1
sg1073
I23
sg1074
(lp1270
sg1076
g1077
sbag0
(g1068
g2
Ntp1271
Rp1272
(dp1273
g1072
I1
sg1073
I24
sg1074
(lp1274
sg1076
g1077
sbaa(lp1275
g0
(g1068
g2
Ntp1276
Rp1277
(dp1278
g1072
I2
sg1073
I0
sg1074
(lp1279
sg1076
g1077
sbag0
(g1068
g2
Ntp1280
Rp1281
(dp1282
g1072
I2
sg1073
I1
sg1074
(lp1283
sg1076
g1077
sbag0
(g1068
g2
Ntp1284
Rp1285
(dp1286
g1072
I2
sg1073
I2
sg1074
g372
sg1076
S'Droga'
p1287
sbag0
(g1068
g2
Ntp1288
Rp1289
(dp1290
g1072
I2
sg1073
I3
sg1074
g699
sg1076
g1287
sbag0
(g1068
g2
Ntp1291
Rp1292
(dp1293
g1072
I2
sg1073
I4
sg1074
g797
sg1076
g1287
sbag0
(g1068
g2
Ntp1294
Rp1295
(dp1296
g1072
I2
sg1073
I5
sg1074
g66
sg1076
g1287
sbag0
(g1068
g2
Ntp1297
Rp1298
(dp1299
g1072
I2
sg1073
I6
sg1074
g161
sg1076
g1287
sbag0
(g1068
g2
Ntp1300
Rp1301
(dp1302
g1072
I2
sg1073
I7
sg1074
g455
sg1076
g1287
sbag0
(g1068
g2
Ntp1303
Rp1304
(dp1305
g1072
I2
sg1073
I8
sg1074
g553
sg1076
g1287
sbag0
(g1068
g2
Ntp1306
Rp1307
(dp1308
g1072
I2
sg1073
I9
sg1074
g900
sg1076
g1287
sbag0
(g1068
g2
Ntp1309
Rp1310
(dp1311
g1072
I10
sg1073
I2
sg1074
g987
sg1076
S'Praca'
p1312
sbag0
(g1068
g2
Ntp1313
Rp1314
(dp1315
g1072
I2
sg1073
I11
sg1074
(lp1316
sg1076
g1077
sbag0
(g1068
g2
Ntp1317
Rp1318
(dp1319
g1072
I2
sg1073
I12
sg1074
(lp1320
sg1076
g1077
sbag0
(g1068
g2
Ntp1321
Rp1322
(dp1323
g1072
I2
sg1073
I13
sg1074
(lp1324
sg1076
g1077
sbag0
(g1068
g2
Ntp1325
Rp1326
(dp1327
g1072
I14
sg1073
I2
sg1074
g714
sg1076
S'Dom'
p1328
sbag0
(g1068
g2
Ntp1329
Rp1330
(dp1331
g1072
I2
sg1073
I15
sg1074
g1050
sg1076
g1287
sbag0
(g1068
g2
Ntp1332
Rp1333
(dp1334
g1072
I2
sg1073
I16
sg1074
g967
sg1076
g1287
sbag0
(g1068
g2
Ntp1335
Rp1336
(dp1337
g1072
I2
sg1073
I17
sg1074
g219
sg1076
g1287
sbag0
(g1068
g2
Ntp1338
Rp1339
(dp1340
g1072
I2
sg1073
I18
sg1074
g295
sg1076
g1287
sbag0
(g1068
g2
Ntp1341
Rp1342
(dp1343
g1072
I2
sg1073
I19
sg1074
g615
sg1076
g1287
sbag0
(g1068
g2
Ntp1344
Rp1345
(dp1346
g1072
I2
sg1073
I20
sg1074
g687
sg1076
g1287
sbag0
(g1068
g2
Ntp1347
Rp1348
(dp1349
g1072
I2
sg1073
I21
sg1074
g1033
sg1076
g1287
sbag0
(g1068
g2
Ntp1350
Rp1351
(dp1352
g1072
I2
sg1073
I22
sg1074
g52
sg1076
g1287
sbag0
(g1068
g2
Ntp1353
Rp1354
(dp1355
g1072
I2
sg1073
I23
sg1074
(lp1356
sg1076
g1077
sbag0
(g1068
g2
Ntp1357
Rp1358
(dp1359
g1072
I2
sg1073
I24
sg1074
(lp1360
sg1076
g1077
sbaa(lp1361
g0
(g1068
g2
Ntp1362
Rp1363
(dp1364
g1072
I3
sg1073
I0
sg1074
(lp1365
sg1076
g1077
sbag0
(g1068
g2
Ntp1366
Rp1367
(dp1368
g1072
I3
sg1073
I1
sg1074
(lp1369
sg1076
g1077
sbag0
(g1068
g2
Ntp1370
Rp1371
(dp1372
g1072
I3
sg1073
I2
sg1074
g157
sg1076
g1287
sbag0
(g1068
g2
Ntp1373
Rp1374
(dp1375
g1072
I3
sg1073
I3
sg1074
g897
sg1076
g1328
sbag0
(g1068
g2
Ntp1376
Rp1377
(dp1378
g1072
I4
sg1073
I3
sg1074
g794
sg1076
g1328
sbag0
(g1068
g2
Ntp1379
Rp1380
(dp1381
g1072
I5
sg1073
I3
sg1074
g452
sg1076
S'Przestrzen komercyjna'
p1382
sbag0
(g1068
g2
Ntp1383
Rp1384
(dp1385
g1072
I6
sg1073
I3
sg1074
g369
sg1076
g1328
sbag0
(g1068
g2
Ntp1386
Rp1387
(dp1388
g1072
I7
sg1073
I3
sg1074
g63
sg1076
g1328
sbag0
(g1068
g2
Ntp1389
Rp1390
(dp1391
g1072
I8
sg1073
I3
sg1074
g1037
sg1076
g1382
sbag0
(g1068
g2
Ntp1392
Rp1393
(dp1394
g1072
I3
sg1073
I9
sg1074
g695
sg1076
g1287
sbag0
(g1068
g2
Ntp1395
Rp1396
(dp1397
g1072
I10
sg1073
I3
sg1074
g629
sg1076
g1328
sbag0
(g1068
g2
Ntp1398
Rp1399
(dp1400
g1072
I3
sg1073
I11
sg1074
(lp1401
sg1076
g1077
sbag0
(g1068
g2
Ntp1402
Rp1403
(dp1404
g1072
I3
sg1073
I12
sg1074
(lp1405
sg1076
g1077
sbag0
(g1068
g2
Ntp1406
Rp1407
(dp1408
g1072
I3
sg1073
I13
sg1074
(lp1409
sg1076
g1077
sbag0
(g1068
g2
Ntp1410
Rp1411
(dp1412
g1072
I14
sg1073
I3
sg1074
g887
sg1076
g1312
sbag0
(g1068
g2
Ntp1413
Rp1414
(dp1415
g1072
I3
sg1073
I15
sg1074
g539
sg1076
g1287
sbag0
(g1068
g2
Ntp1416
Rp1417
(dp1418
g1072
I16
sg1073
I3
sg1074
g645
sg1076
g1382
sbag0
(g1068
g2
Ntp1419
Rp1420
(dp1421
g1072
I17
sg1073
I3
sg1074
g322
sg1076
g1328
sbag0
(g1068
g2
Ntp1422
Rp1423
(dp1424
g1072
I18
sg1073
I3
sg1074
g255
sg1076
g1328
sbag0
(g1068
g2
Ntp1425
Rp1426
(dp1427
g1072
I19
sg1073
I3
sg1074
g998
sg1076
g1312
sbag0
(g1068
g2
Ntp1428
Rp1429
(dp1430
g1072
I20
sg1073
I3
sg1074
g915
sg1076
g1328
sbag0
(g1068
g2
Ntp1431
Rp1432
(dp1433
g1072
I21
sg1073
I3
sg1074
g564
sg1076
g1328
sbag0
(g1068
g2
Ntp1434
Rp1435
(dp1436
g1072
I3
sg1073
I22
sg1074
g473
sg1076
g1287
sbag0
(g1068
g2
Ntp1437
Rp1438
(dp1439
g1072
I3
sg1073
I23
sg1074
(lp1440
sg1076
g1077
sbag0
(g1068
g2
Ntp1441
Rp1442
(dp1443
g1072
I3
sg1073
I24
sg1074
(lp1444
sg1076
g1077
sbaa(lp1445
g0
(g1068
g2
Ntp1446
Rp1447
(dp1448
g1072
I4
sg1073
I0
sg1074
(lp1449
sg1076
g1077
sbag0
(g1068
g2
Ntp1450
Rp1451
(dp1452
g1072
I4
sg1073
I1
sg1074
(lp1453
sg1076
g1077
sbag0
(g1068
g2
Ntp1454
Rp1455
(dp1456
g1072
I4
sg1073
I2
sg1074
g710
sg1076
g1287
sbag0
(g1068
g2
Ntp1457
Rp1458
(dp1459
g1072
I4
sg1073
I3
sg1074
g1043
sg1076
g1287
sbag0
(g1068
g2
Ntp1460
Rp1461
(dp1462
g1072
I4
sg1073
I4
sg1074
g911
sg1076
g1287
sbag0
(g1068
g2
Ntp1463
Rp1464
(dp1465
g1072
I4
sg1073
I5
sg1074
g173
sg1076
g1287
sbag0
(g1068
g2
Ntp1466
Rp1467
(dp1468
g1072
I4
sg1073
I6
sg1074
g469
sg1076
g1287
sbag0
(g1068
g2
Ntp1469
Rp1470
(dp1471
g1072
I4
sg1073
I7
sg1074
g813
sg1076
g1287
sbag0
(g1068
g2
Ntp1472
Rp1473
(dp1474
g1072
I8
sg1073
I4
sg1074
g550
sg1076
g1328
sbag0
(g1068
g2
Ntp1475
Rp1476
(dp1477
g1072
I4
sg1073
I9
sg1074
g893
sg1076
g1287
sbag0
(g1068
g2
Ntp1478
Rp1479
(dp1480
g1072
I10
sg1073
I4
sg1074
g154
sg1076
g1328
sbag0
(g1068
g2
Ntp1481
Rp1482
(dp1483
g1072
I11
sg1073
I4
sg1074
g449
sg1076
g1312
sbag0
(g1068
g2
Ntp1484
Rp1485
(dp1486
g1072
I12
sg1073
I4
sg1074
g309
sg1076
g1312
sbag0
(g1068
g2
Ntp1487
Rp1488
(dp1489
g1072
I13
sg1073
I4
sg1074
g639
sg1076
g1328
sbag0
(g1068
g2
Ntp1490
Rp1491
(dp1492
g1072
I14
sg1073
I4
sg1074
g984
sg1076
g1312
sbag0
(g1068
g2
Ntp1493
Rp1494
(dp1495
g1072
I4
sg1073
I15
sg1074
g240
sg1076
g1287
sbag0
(g1068
g2
Ntp1496
Rp1497
(dp1498
g1072
I16
sg1073
I4
sg1074
g187
sg1076
g1312
sbag0
(g1068
g2
Ntp1499
Rp1500
(dp1501
g1072
I4
sg1073
I17
sg1074
g487
sg1076
g1287
sbag0
(g1068
g2
Ntp1502
Rp1503
(dp1504
g1072
I4
sg1073
I18
sg1074
g830
sg1076
g1287
sbag0
(g1068
g2
Ntp1505
Rp1506
(dp1507
g1072
I4
sg1073
I19
sg1074
g94
sg1076
g1287
sbag0
(g1068
g2
Ntp1508
Rp1509
(dp1510
g1072
I4
sg1073
I20
sg1074
g1008
sg1076
g1287
sbag0
(g1068
g2
Ntp1511
Rp1512
(dp1513
g1072
I4
sg1073
I21
sg1074
g264
sg1076
g1287
sbag0
(g1068
g2
Ntp1514
Rp1515
(dp1516
g1072
I4
sg1073
I22
sg1074
g574
sg1076
g1287
sbag0
(g1068
g2
Ntp1517
Rp1518
(dp1519
g1072
I4
sg1073
I23
sg1074
(lp1520
sg1076
g1077
sbag0
(g1068
g2
Ntp1521
Rp1522
(dp1523
g1072
I4
sg1073
I24
sg1074
(lp1524
sg1076
g1077
sbaa(lp1525
g0
(g1068
g2
Ntp1526
Rp1527
(dp1528
g1072
I5
sg1073
I0
sg1074
(lp1529
sg1076
g1077
sbag0
(g1068
g2
Ntp1530
Rp1531
(dp1532
g1072
I5
sg1073
I1
sg1074
(lp1533
sg1076
g1077
sbag0
(g1068
g2
Ntp1534
Rp1535
(dp1536
g1072
I2
sg1073
I5
sg1074
g1057
sg1076
g1328
sbag0
(g1068
g2
Ntp1537
Rp1538
(dp1539
g1072
I3
sg1073
I5
sg1074
g724
sg1076
g1328
sbag0
(g1068
g2
Ntp1540
Rp1541
(dp1542
g1072
I4
sg1073
I5
sg1074
g387
sg1076
g1382
sbag0
(g1068
g2
Ntp1543
Rp1544
(dp1545
g1072
I5
sg1073
I5
sg1074
g91
sg1076
g1382
sbag0
(g1068
g2
Ntp1546
Rp1547
(dp1548
g1072
I6
sg1073
I5
sg1074
g827
sg1076
g1328
sbag0
(g1068
g2
Ntp1549
Rp1550
(dp1551
g1072
I5
sg1073
I7
sg1074
g483
sg1076
g1287
sbag0
(g1068
g2
Ntp1552
Rp1553
(dp1554
g1072
I8
sg1073
I5
sg1074
g77
sg1076
g1312
sbag0
(g1068
g2
Ntp1555
Rp1556
(dp1557
g1072
I5
sg1073
I9
sg1074
g809
sg1076
g1287
sbag0
(g1068
g2
Ntp1558
Rp1559
(dp1560
g1072
I5
sg1073
I10
sg1074
g465
sg1076
g1287
sbag0
(g1068
g2
Ntp1561
Rp1562
(dp1563
g1072
I5
sg1073
I11
sg1074
g169
sg1076
g1287
sbag0
(g1068
g2
Ntp1564
Rp1565
(dp1566
g1072
I5
sg1073
I12
sg1074
g907
sg1076
g1287
sbag0
(g1068
g2
Ntp1567
Rp1568
(dp1569
g1072
I5
sg1073
I13
sg1074
g560
sg1076
g1287
sbag0
(g1068
g2
Ntp1570
Rp1571
(dp1572
g1072
I5
sg1073
I14
sg1074
g248
sg1076
g1287
sbag0
(g1068
g2
Ntp1573
Rp1574
(dp1575
g1072
I5
sg1073
I15
sg1074
g990
sg1076
g1287
sbag0
(g1068
g2
Ntp1576
Rp1577
(dp1578
g1072
I16
sg1073
I5
sg1074
g740
sg1076
g1328
sbag0
(g1068
g2
Ntp1579
Rp1580
(dp1581
g1072
I5
sg1073
I17
sg1074
g407
sg1076
g1287
sbag0
(g1068
g2
Ntp1582
Rp1583
(dp1584
g1072
I18
sg1073
I5
sg1074
g115
sg1076
g1328
sbag0
(g1068
g2
Ntp1585
Rp1586
(dp1587
g1072
I19
sg1073
I5
sg1074
g848
sg1076
g1328
sbag0
(g1068
g2
Ntp1588
Rp1589
(dp1590
g1072
I20
sg1073
I5
sg1074
g504
sg1076
g1312
sbag0
(g1068
g2
Ntp1591
Rp1592
(dp1593
g1072
I21
sg1073
I5
sg1074
g199
sg1076
g1328
sbag0
(g1068
g2
Ntp1594
Rp1595
(dp1596
g1072
I22
sg1073
I5
sg1074
g943
sg1076
g1382
sbag0
(g1068
g2
Ntp1597
Rp1598
(dp1599
g1072
I5
sg1073
I23
sg1074
(lp1600
sg1076
g1077
sbag0
(g1068
g2
Ntp1601
Rp1602
(dp1603
g1072
I5
sg1073
I24
sg1074
(lp1604
sg1076
g1077
sbaa(lp1605
g0
(g1068
g2
Ntp1606
Rp1607
(dp1608
g1072
I6
sg1073
I0
sg1074
(lp1609
sg1076
g1077
sbag0
(g1068
g2
Ntp1610
Rp1611
(dp1612
g1072
I6
sg1073
I1
sg1074
(lp1613
sg1076
g1077
sbag0
(g1068
g2
Ntp1614
Rp1615
(dp1616
g1072
I6
sg1073
I2
sg1074
(lp1617
sg1076
g1077
sbag0
(g1068
g2
Ntp1618
Rp1619
(dp1620
g1072
I3
sg1073
I6
sg1074
g925
sg1076
g1328
sbag0
(g1068
g2
Ntp1621
Rp1622
(dp1623
g1072
I6
sg1073
I4
sg1074
g383
sg1076
g1287
sbag0
(g1068
g2
Ntp1624
Rp1625
(dp1626
g1072
I6
sg1073
I5
sg1074
g720
sg1076
g1287
sbag0
(g1068
g2
Ntp1627
Rp1628
(dp1629
g1072
I6
sg1073
I6
sg1074
g823
sg1076
g1287
sbag0
(g1068
g2
Ntp1630
Rp1631
(dp1632
g1072
I6
sg1073
I7
sg1074
g86
sg1076
g1287
sbag0
(g1068
g2
Ntp1633
Rp1634
(dp1635
g1072
I8
sg1073
I6
sg1074
g737
sg1076
g1328
sbag0
(g1068
g2
Ntp1636
Rp1637
(dp1638
g1072
I9
sg1073
I6
sg1074
g12
sg1076
g1328
sbag0
(g1068
g2
Ntp1639
Rp1640
(dp1641
g1072
I10
sg1073
I6
sg1074
g112
sg1076
g1328
sbag0
(g1068
g2
Ntp1642
Rp1643
(dp1644
g1072
I11
sg1073
I6
sg1074
g404
sg1076
g1328
sbag0
(g1068
g2
Ntp1645
Rp1646
(dp1647
g1072
I12
sg1073
I6
sg1074
g1005
sg1076
g1328
sbag0
(g1068
g2
Ntp1648
Rp1649
(dp1650
g1072
I13
sg1073
I6
sg1074
g261
sg1076
g1312
sbag0
(g1068
g2
Ntp1651
Rp1652
(dp1653
g1072
I14
sg1073
I6
sg1074
g334
sg1076
g1328
sbag0
(g1068
g2
Ntp1654
Rp1655
(dp1656
g1072
I15
sg1073
I6
sg1074
g651
sg1076
g1328
sbag0
(g1068
g2
Ntp1657
Rp1658
(dp1659
g1072
I16
sg1073
I6
sg1074
g275
sg1076
g1328
sbag0
(g1068
g2
Ntp1660
Rp1661
(dp1662
g1072
I17
sg1073
I6
sg1074
g588
sg1076
g1328
sbag0
(g1068
g2
Ntp1663
Rp1664
(dp1665
g1072
I18
sg1073
I6
sg1074
g670
sg1076
g1328
sbag0
(g1068
g2
Ntp1666
Rp1667
(dp1668
g1072
I19
sg1073
I6
sg1074
g1019
sg1076
g1328
sbag0
(g1068
g2
Ntp1669
Rp1670
(dp1671
g1072
I20
sg1073
I6
sg1074
g501
sg1076
g1382
sbag0
(g1068
g2
Ntp1672
Rp1673
(dp1674
g1072
I21
sg1073
I6
sg1074
g845
sg1076
g1312
sbag0
(g1068
g2
Ntp1675
Rp1676
(dp1677
g1072
I6
sg1073
I22
sg1074
(lp1678
sg1076
g1077
sbag0
(g1068
g2
Ntp1679
Rp1680
(dp1681
g1072
I6
sg1073
I23
sg1074
(lp1682
sg1076
g1077
sbag0
(g1068
g2
Ntp1683
Rp1684
(dp1685
g1072
I6
sg1073
I24
sg1074
(lp1686
sg1076
g1077
sbaa(lp1687
g0
(g1068
g2
Ntp1688
Rp1689
(dp1690
g1072
I7
sg1073
I0
sg1074
(lp1691
sg1076
g1077
sbag0
(g1068
g2
Ntp1692
Rp1693
(dp1694
g1072
I7
sg1073
I1
sg1074
(lp1695
sg1076
g1077
sbag0
(g1068
g2
Ntp1696
Rp1697
(dp1698
g1072
I7
sg1073
I2
sg1074
(lp1699
sg1076
g1077
sbag0
(g1068
g2
Ntp1700
Rp1701
(dp1702
g1072
I3
sg1073
I7
sg1074
g9
sg1076
g1328
sbag0
(g1068
g2
Ntp1703
Rp1704
(dp1705
g1072
I7
sg1073
I4
sg1074
g497
sg1076
g1287
sbag0
(g1068
g2
Ntp1706
Rp1707
(dp1708
g1072
I5
sg1073
I7
sg1074
g193
sg1076
g1328
sbag0
(g1068
g2
Ntp1709
Rp1710
(dp1711
g1072
I6
sg1073
I7
sg1074
g109
sg1076
g1312
sbag0
(g1068
g2
Ntp1712
Rp1713
(dp1714
g1072
I7
sg1073
I7
sg1074
g840
sg1076
g1287
sbag0
(g1068
g2
Ntp1715
Rp1716
(dp1717
g1072
I7
sg1073
I8
sg1074
g271
sg1076
g1287
sbag0
(g1068
g2
Ntp1718
Rp1719
(dp1720
g1072
I7
sg1073
I9
sg1074
g1015
sg1076
g1287
sbag0
(g1068
g2
Ntp1721
Rp1722
(dp1723
g1072
I7
sg1073
I10
sg1074
g936
sg1076
g1287
sbag0
(g1068
g2
Ntp1724
Rp1725
(dp1726
g1072
I7
sg1073
I11
sg1074
g584
sg1076
g1287
sbag0
(g1068
g2
Ntp1727
Rp1728
(dp1729
g1072
I7
sg1073
I12
sg1074
g25
sg1076
g1287
sbag0
(g1068
g2
Ntp1730
Rp1731
(dp1732
g1072
I7
sg1073
I13
sg1074
g749
sg1076
g1287
sbag0
(g1068
g2
Ntp1733
Rp1734
(dp1735
g1072
I7
sg1073
I14
sg1074
g666
sg1076
g1287
sbag0
(g1068
g2
Ntp1736
Rp1737
(dp1738
g1072
I7
sg1073
I15
sg1074
g343
sg1076
g1287
sbag0
(g1068
g2
Ntp1739
Rp1740
(dp1741
g1072
I7
sg1073
I16
sg1074
g861
sg1076
g1287
sbag0
(g1068
g2
Ntp1742
Rp1743
(dp1744
g1072
I7
sg1073
I17
sg1074
g517
sg1076
g1287
sbag0
(g1068
g2
Ntp1745
Rp1746
(dp1747
g1072
I7
sg1073
I18
sg1074
g421
sg1076
g1287
sbag0
(g1068
g2
Ntp1748
Rp1749
(dp1750
g1072
I7
sg1073
I19
sg1074
g127
sg1076
g1287
sbag0
(g1068
g2
Ntp1751
Rp1752
(dp1753
g1072
I7
sg1073
I20
sg1074
g604
sg1076
g1287
sbag0
(g1068
g2
Ntp1754
Rp1755
(dp1756
g1072
I7
sg1073
I21
sg1074
g287
sg1076
g1287
sbag0
(g1068
g2
Ntp1757
Rp1758
(dp1759
g1072
I22
sg1073
I7
sg1074
g209
sg1076
g1328
sbag0
(g1068
g2
Ntp1760
Rp1761
(dp1762
g1072
I7
sg1073
I23
sg1074
(lp1763
sg1076
g1077
sbag0
(g1068
g2
Ntp1764
Rp1765
(dp1766
g1072
I7
sg1073
I24
sg1074
(lp1767
sg1076
g1077
sbaa(lp1768
g0
(g1068
g2
Ntp1769
Rp1770
(dp1771
g1072
I8
sg1073
I0
sg1074
(lp1772
sg1076
g1077
sbag0
(g1068
g2
Ntp1773
Rp1774
(dp1775
g1072
I8
sg1073
I1
sg1074
(lp1776
sg1076
g1077
sbag0
(g1068
g2
Ntp1777
Rp1778
(dp1779
g1072
I8
sg1073
I2
sg1074
(lp1780
sg1076
g1077
sbag0
(g1068
g2
Ntp1781
Rp1782
(dp1783
g1072
I3
sg1073
I8
sg1074
g462
sg1076
g1328
sbag0
(g1068
g2
Ntp1784
Rp1785
(dp1786
g1072
I8
sg1073
I4
sg1074
g805
sg1076
g1287
sbag0
(g1068
g2
Ntp1787
Rp1788
(dp1789
g1072
I5
sg1073
I8
sg1074
g70
sg1076
g1382
sbag0
(g1068
g2
Ntp1790
Rp1791
(dp1792
g1072
I6
sg1073
I8
sg1074
g376
sg1076
g1382
sbag0
(g1068
g2
Ntp1793
Rp1794
(dp1795
g1072
I8
sg1073
I7
sg1074
g706
sg1076
g1287
sbag0
(g1068
g2
Ntp1796
Rp1797
(dp1798
g1072
I8
sg1073
I8
sg1074
g1040
sg1076
g1328
sbag0
(g1068
g2
Ntp1799
Rp1800
(dp1801
g1072
I9
sg1073
I8
sg1074
g306
sg1076
g1328
sbag0
(g1068
g2
Ntp1802
Rp1803
(dp1804
g1072
I10
sg1073
I8
sg1074
g632
sg1076
g1312
sbag0
(g1068
g2
Ntp1805
Rp1806
(dp1807
g1072
I11
sg1073
I8
sg1074
g974
sg1076
g1328
sbag0
(g1068
g2
Ntp1808
Rp1809
(dp1810
g1072
I8
sg1073
I12
sg1074
g232
sg1076
g1287
sbag0
(g1068
g2
Ntp1811
Rp1812
(dp1813
g1072
I13
sg1073
I8
sg1074
g547
sg1076
g1328
sbag0
(g1068
g2
Ntp1814
Rp1815
(dp1816
g1072
I14
sg1073
I8
sg1074
g890
sg1076
g1312
sbag0
(g1068
g2
Ntp1817
Rp1818
(dp1819
g1072
I15
sg1073
I8
sg1074
g151
sg1076
g1312
sbag0
(g1068
g2
Ntp1820
Rp1821
(dp1822
g1072
I16
sg1073
I8
sg1074
g648
sg1076
g1328
sbag0
(g1068
g2
Ntp1823
Rp1824
(dp1825
g1072
I8
sg1073
I17
sg1074
g1001
sg1076
g1287
sbag0
(g1068
g2
Ntp1826
Rp1827
(dp1828
g1072
I18
sg1073
I8
sg1074
g258
sg1076
g1382
sbag0
(g1068
g2
Ntp1829
Rp1830
(dp1831
g1072
I19
sg1073
I8
sg1074
g567
sg1076
g1328
sbag0
(g1068
g2
Ntp1832
Rp1833
(dp1834
g1072
I20
sg1073
I8
sg1074
g922
sg1076
g1328
sbag0
(g1068
g2
Ntp1835
Rp1836
(dp1837
g1072
I8
sg1073
I21
sg1074
g183
sg1076
g1287
sbag0
(g1068
g2
Ntp1838
Rp1839
(dp1840
g1072
I22
sg1073
I8
sg1074
g480
sg1076
g1328
sbag0
(g1068
g2
Ntp1841
Rp1842
(dp1843
g1072
I8
sg1073
I23
sg1074
(lp1844
sg1076
g1077
sbag0
(g1068
g2
Ntp1845
Rp1846
(dp1847
g1072
I8
sg1073
I24
sg1074
(lp1848
sg1076
g1077
sbaa(lp1849
g0
(g1068
g2
Ntp1850
Rp1851
(dp1852
g1072
I9
sg1073
I0
sg1074
(lp1853
sg1076
g1077
sbag0
(g1068
g2
Ntp1854
Rp1855
(dp1856
g1072
I9
sg1073
I1
sg1074
(lp1857
sg1076
g1077
sbag0
(g1068
g2
Ntp1858
Rp1859
(dp1860
g1072
I9
sg1073
I2
sg1074
(lp1861
sg1076
g1077
sbag0
(g1068
g2
Ntp1862
Rp1863
(dp1864
g1072
I3
sg1073
I9
sg1074
g180
sg1076
g1382
sbag0
(g1068
g2
Ntp1865
Rp1866
(dp1867
g1072
I9
sg1073
I4
sg1074
g312
sg1076
g1287
sbag0
(g1068
g2
Ntp1868
Rp1869
(dp1870
g1072
I5
sg1073
I9
sg1074
g1054
sg1076
g1382
sbag0
(g1068
g2
Ntp1871
Rp1872
(dp1873
g1072
I6
sg1073
I9
sg1074
g717
sg1076
g1328
sbag0
(g1068
g2
Ntp1874
Rp1875
(dp1876
g1072
I9
sg1073
I7
sg1074
g379
sg1076
g1287
sbag0
(g1068
g2
Ntp1877
Rp1878
(dp1879
g1072
I8
sg1073
I9
sg1074
g557
sg1076
g1328
sbag0
(g1068
g2
Ntp1880
Rp1881
(dp1882
g1072
I9
sg1073
I9
sg1074
(lp1883
sg1076
g1077
sbag0
(g1068
g2
Ntp1884
Rp1885
(dp1886
g1072
I9
sg1073
I10
sg1074
(lp1887
sg1076
g1077
sbag0
(g1068
g2
Ntp1888
Rp1889
(dp1890
g1072
I11
sg1073
I9
sg1074
g642
sg1076
g1382
sbag0
(g1068
g2
Ntp1891
Rp1892
(dp1893
g1072
I9
sg1073
I12
sg1074
g801
sg1076
g1287
sbag0
(g1068
g2
Ntp1894
Rp1895
(dp1896
g1072
I13
sg1073
I9
sg1074
g459
sg1076
g1328
sbag0
(g1068
g2
Ntp1897
Rp1898
(dp1899
g1072
I9
sg1073
I14
sg1074
(lp1900
sg1076
g1077
sbag0
(g1068
g2
Ntp1901
Rp1902
(dp1903
g1072
I9
sg1073
I15
sg1074
(lp1904
sg1076
g1077
sbag0
(g1068
g2
Ntp1905
Rp1906
(dp1907
g1072
I16
sg1073
I9
sg1074
g190
sg1076
g1328
sbag0
(g1068
g2
Ntp1908
Rp1909
(dp1910
g1072
I9
sg1073
I17
sg1074
g932
sg1076
g1287
sbag0
(g1068
g2
Ntp1911
Rp1912
(dp1913
g1072
I18
sg1073
I9
sg1074
g581
sg1076
g1328
sbag0
(g1068
g2
Ntp1914
Rp1915
(dp1916
g1072
I9
sg1073
I19
sg1074
g268
sg1076
g1287
sbag0
(g1068
g2
Ntp1917
Rp1918
(dp1919
g1072
I20
sg1073
I9
sg1074
g398
sg1076
g1382
sbag0
(g1068
g2
Ntp1920
Rp1921
(dp1922
g1072
I9
sg1073
I21
sg1074
g105
sg1076
g1287
sbag0
(g1068
g2
Ntp1923
Rp1924
(dp1925
g1072
I22
sg1073
I9
sg1074
g837
sg1076
g1312
sbag0
(g1068
g2
Ntp1926
Rp1927
(dp1928
g1072
I9
sg1073
I23
sg1074
(lp1929
sg1076
g1077
sbag0
(g1068
g2
Ntp1930
Rp1931
(dp1932
g1072
I9
sg1073
I24
sg1074
(lp1933
sg1076
g1077
sbaa(lp1934
g0
(g1068
g2
Ntp1935
Rp1936
(dp1937
g1072
I10
sg1073
I0
sg1074
(lp1938
sg1076
g1077
sbag0
(g1068
g2
Ntp1939
Rp1940
(dp1941
g1072
I10
sg1073
I1
sg1074
(lp1942
sg1076
g1077
sbag0
(g1068
g2
Ntp1943
Rp1944
(dp1945
g1072
I10
sg1073
I2
sg1074
(lp1946
sg1076
g1077
sbag0
(g1068
g2
Ntp1947
Rp1948
(dp1949
g1072
I3
sg1073
I10
sg1074
g325
sg1076
g1328
sbag0
(g1068
g2
Ntp1950
Rp1951
(dp1952
g1072
I10
sg1073
I4
sg1074
g394
sg1076
g1287
sbag0
(g1068
g2
Ntp1953
Rp1954
(dp1955
g1072
I5
sg1073
I10
sg1074
g731
sg1076
g1382
sbag0
(g1068
g2
Ntp1956
Rp1957
(dp1958
g1072
I6
sg1073
I10
sg1074
g834
sg1076
g1328
sbag0
(g1068
g2
Ntp1959
Rp1960
(dp1961
g1072
I10
sg1073
I7
sg1074
g101
sg1076
g1287
sbag0
(g1068
g2
Ntp1962
Rp1963
(dp1964
g1072
I8
sg1073
I10
sg1074
g83
sg1076
g1328
sbag0
(g1068
g2
Ntp1965
Rp1966
(dp1967
g1072
I10
sg1073
I9
sg1074
(lp1968
sg1076
g1077
sbag0
(g1068
g2
Ntp1969
Rp1970
(dp1971
g1072
I10
sg1073
I10
sg1074
(lp1972
sg1076
g1077
sbag0
(g1068
g2
Ntp1973
Rp1974
(dp1975
g1072
I11
sg1073
I10
sg1074
g817
sg1076
g1328
sbag0
(g1068
g2
Ntp1976
Rp1977
(dp1978
g1072
I10
sg1073
I12
sg1074
g918
sg1076
g1287
sbag0
(g1068
g2
Ntp1979
Rp1980
(dp1981
g1072
I13
sg1073
I10
sg1074
g177
sg1076
g1328
sbag0
(g1068
g2
Ntp1982
Rp1983
(dp1984
g1072
I10
sg1073
I14
sg1074
(lp1985
sg1076
g1077
sbag0
(g1068
g2
Ntp1986
Rp1987
(dp1988
g1072
I10
sg1073
I15
sg1074
(lp1989
sg1076
g1077
sbag0
(g1068
g2
Ntp1990
Rp1991
(dp1992
g1072
I16
sg1073
I10
sg1074
g746
sg1076
g1382
sbag0
(g1068
g2
Ntp1993
Rp1994
(dp1995
g1072
I10
sg1073
I17
sg1074
g18
sg1076
g1287
sbag0
(g1068
g2
Ntp1996
Rp1997
(dp1998
g1072
I18
sg1073
I10
sg1074
g124
sg1076
g1328
sbag0
(g1068
g2
Ntp1999
Rp2000
(dp2001
g1072
I10
sg1073
I19
sg1074
g417
sg1076
g1287
sbag0
(g1068
g2
Ntp2002
Rp2003
(dp2004
g1072
I20
sg1073
I10
sg1074
g514
sg1076
g1328
sbag0
(g1068
g2
Ntp2005
Rp2006
(dp2007
g1072
I10
sg1073
I21
sg1074
g854
sg1076
g1287
sbag0
(g1068
g2
Ntp2008
Rp2009
(dp2010
g1072
I22
sg1073
I10
sg1074
g952
sg1076
g1312
sbag0
(g1068
g2
Ntp2011
Rp2012
(dp2013
g1072
I10
sg1073
I23
sg1074
(lp2014
sg1076
g1077
sbag0
(g1068
g2
Ntp2015
Rp2016
(dp2017
g1072
I10
sg1073
I24
sg1074
(lp2018
sg1076
g1077
sbaa(lp2019
g0
(g1068
g2
Ntp2020
Rp2021
(dp2022
g1072
I11
sg1073
I0
sg1074
(lp2023
sg1076
g1077
sbag0
(g1068
g2
Ntp2024
Rp2025
(dp2026
g1072
I11
sg1073
I1
sg1074
(lp2027
sg1076
g1077
sbag0
(g1068
g2
Ntp2028
Rp2029
(dp2030
g1072
I11
sg1073
I2
sg1074
(lp2031
sg1076
g1077
sbag0
(g1068
g2
Ntp2032
Rp2033
(dp2034
g1072
I3
sg1073
I11
sg1074
g491
sg1076
g1328
sbag0
(g1068
g2
Ntp2035
Rp2036
(dp2037
g1072
I11
sg1073
I4
sg1074
g390
sg1076
g1287
sbag0
(g1068
g2
Ntp2038
Rp2039
(dp2040
g1072
I5
sg1073
I11
sg1074
g98
sg1076
g1382
sbag0
(g1068
g2
Ntp2041
Rp2042
(dp2043
g1072
I6
sg1073
I11
sg1074
g1060
sg1076
g1328
sbag0
(g1068
g2
Ntp2044
Rp2045
(dp2046
g1072
I11
sg1073
I7
sg1074
g727
sg1076
g1287
sbag0
(g1068
g2
Ntp2047
Rp2048
(dp2049
g1072
I8
sg1073
I11
sg1074
g743
sg1076
g1382
sbag0
(g1068
g2
Ntp2050
Rp2051
(dp2052
g1072
I11
sg1073
I9
sg1074
(lp2053
sg1076
g1077
sbag0
(g1068
g2
Ntp2054
Rp2055
(dp2056
g1072
I11
sg1073
I10
sg1074
(lp2057
sg1076
g1077
sbag0
(g1068
g2
Ntp2058
Rp2059
(dp2060
g1072
I11
sg1073
I11
sg1074
g15
sg1076
g1382
sbag0
(g1068
g2
Ntp2061
Rp2062
(dp2063
g1072
I11
sg1073
I12
sg1074
g1012
sg1076
g1287
sbag0
(g1068
g2
Ntp2064
Rp2065
(dp2066
g1072
I13
sg1073
I11
sg1074
g660
sg1076
g1312
sbag0
(g1068
g2
Ntp2067
Rp2068
(dp2069
g1072
I11
sg1073
I14
sg1074
(lp2070
sg1076
g1077
sbag0
(g1068
g2
Ntp2071
Rp2072
(dp2073
g1072
I11
sg1073
I15
sg1074
(lp2074
sg1076
g1077
sbag0
(g1068
g2
Ntp2075
Rp2076
(dp2077
g1072
I16
sg1073
I11
sg1074
g281
sg1076
g1328
sbag0
(g1068
g2
Ntp2078
Rp2079
(dp2080
g1072
I11
sg1073
I17
sg1074
g1025
sg1076
g1287
sbag0
(g1068
g2
Ntp2081
Rp2082
(dp2083
g1072
I18
sg1073
I11
sg1074
g949
sg1076
g1328
sbag0
(g1068
g2
Ntp2084
Rp2085
(dp2086
g1072
I11
sg1073
I19
sg1074
g594
sg1076
g1287
sbag0
(g1068
g2
Ntp2087
Rp2088
(dp2089
g1072
I20
sg1073
I11
sg1074
g511
sg1076
g1328
sbag0
(g1068
g2
Ntp2090
Rp2091
(dp2092
g1072
I11
sg1073
I21
sg1074
g205
sg1076
g1287
sbag0
(g1068
g2
Ntp2093
Rp2094
(dp2095
g1072
I22
sg1073
I11
sg1074
g121
sg1076
g1328
sbag0
(g1068
g2
Ntp2096
Rp2097
(dp2098
g1072
I11
sg1073
I23
sg1074
(lp2099
sg1076
g1077
sbag0
(g1068
g2
Ntp2100
Rp2101
(dp2102
g1072
I11
sg1073
I24
sg1074
(lp2103
sg1076
g1077
sbaa(lp2104
g0
(g1068
g2
Ntp2105
Rp2106
(dp2107
g1072
I12
sg1073
I0
sg1074
(lp2108
sg1076
g1077
sbag0
(g1068
g2
Ntp2109
Rp2110
(dp2111
g1072
I12
sg1073
I1
sg1074
(lp2112
sg1076
g1077
sbag0
(g1068
g2
Ntp2113
Rp2114
(dp2115
g1072
I12
sg1073
I2
sg1074
(lp2116
sg1076
g1077
sbag0
(g1068
g2
Ntp2117
Rp2118
(dp2119
g1072
I3
sg1073
I12
sg1074
g657
sg1076
g1328
sbag0
(g1068
g2
Ntp2120
Rp2121
(dp2122
g1072
I12
sg1073
I4
sg1074
g507
sg1076
g1287
sbag0
(g1068
g2
Ntp2123
Rp2124
(dp2125
g1072
I5
sg1073
I12
sg1074
g851
sg1076
g1328
sbag0
(g1068
g2
Ntp2126
Rp2127
(dp2128
g1072
I6
sg1073
I12
sg1074
g118
sg1076
g1382
sbag0
(g1068
g2
Ntp2129
Rp2130
(dp2131
g1072
I12
sg1073
I7
sg1074
g410
sg1076
g1287
sbag0
(g1068
g2
Ntp2132
Rp2133
(dp2134
g1072
I8
sg1073
I12
sg1074
g278
sg1076
g1312
sbag0
(g1068
g2
Ntp2135
Rp2136
(dp2137
g1072
I9
sg1073
I12
sg1074
g591
sg1076
g1312
sbag0
(g1068
g2
Ntp2138
Rp2139
(dp2140
g1072
I10
sg1073
I12
sg1074
g946
sg1076
g1382
sbag0
(g1068
g2
Ntp2141
Rp2142
(dp2143
g1072
I11
sg1073
I12
sg1074
g202
sg1076
g1312
sbag0
(g1068
g2
Ntp2144
Rp2145
(dp2146
g1072
I12
sg1073
I12
sg1074
g38
sg1076
g1328
sbag0
(g1068
g2
Ntp2147
Rp2148
(dp2149
g1072
I13
sg1073
I12
sg1074
g353
sg1076
g1382
sbag0
(g1068
g2
Ntp2150
Rp2151
(dp2152
g1072
I14
sg1073
I12
sg1074
g673
sg1076
g1382
sbag0
(g1068
g2
Ntp2153
Rp2154
(dp2155
g1072
I15
sg1073
I12
sg1074
g1022
sg1076
g1382
sbag0
(g1068
g2
Ntp2156
Rp2157
(dp2158
g1072
I16
sg1073
I12
sg1074
g869
sg1076
g1382
sbag0
(g1068
g2
Ntp2159
Rp2160
(dp2161
g1072
I12
sg1073
I17
sg1074
g136
sg1076
g1287
sbag0
(g1068
g2
Ntp2162
Rp2163
(dp2164
g1072
I18
sg1073
I12
sg1074
g431
sg1076
g1328
sbag0
(g1068
g2
Ntp2165
Rp2166
(dp2167
g1072
I12
sg1073
I19
sg1074
g759
sg1076
g1287
sbag0
(g1068
g2
Ntp2168
Rp2169
(dp2170
g1072
I20
sg1073
I12
sg1074
g612
sg1076
g1328
sbag0
(g1068
g2
Ntp2171
Rp2172
(dp2173
g1072
I12
sg1073
I21
sg1074
g963
sg1076
g1287
sbag0
(g1068
g2
Ntp2174
Rp2175
(dp2176
g1072
I22
sg1073
I12
sg1074
g216
sg1076
g1328
sbag0
(g1068
g2
Ntp2177
Rp2178
(dp2179
g1072
I12
sg1073
I23
sg1074
(lp2180
sg1076
g1077
sbag0
(g1068
g2
Ntp2181
Rp2182
(dp2183
g1072
I12
sg1073
I24
sg1074
(lp2184
sg1076
g1077
sbaa(lp2185
g0
(g1068
g2
Ntp2186
Rp2187
(dp2188
g1072
I13
sg1073
I0
sg1074
(lp2189
sg1076
g1077
sbag0
(g1068
g2
Ntp2190
Rp2191
(dp2192
g1072
I13
sg1073
I1
sg1074
(lp2193
sg1076
g1077
sbag0
(g1068
g2
Ntp2194
Rp2195
(dp2196
g1072
I13
sg1073
I2
sg1074
(lp2197
sg1076
g1077
sbag0
(g1068
g2
Ntp2198
Rp2199
(dp2200
g1072
I3
sg1073
I13
sg1074
g350
sg1076
g1328
sbag0
(g1068
g2
Ntp2201
Rp2202
(dp2203
g1072
I13
sg1073
I4
sg1074
g34
sg1076
g1287
sbag0
(g1068
g2
Ntp2204
Rp2205
(dp2206
g1072
I5
sg1073
I13
sg1074
g756
sg1076
g1382
sbag0
(g1068
g2
Ntp2207
Rp2208
(dp2209
g1072
I13
sg1073
I6
sg1074
g428
sg1076
g1287
sbag0
(g1068
g2
Ntp2210
Rp2211
(dp2212
g1072
I13
sg1073
I7
sg1074
g131
sg1076
g1287
sbag0
(g1068
g2
Ntp2213
Rp2214
(dp2215
g1072
I13
sg1073
I8
sg1074
g865
sg1076
g1287
sbag0
(g1068
g2
Ntp2216
Rp2217
(dp2218
g1072
I13
sg1073
I9
sg1074
g525
sg1076
g1287
sbag0
(g1068
g2
Ntp2219
Rp2220
(dp2221
g1072
I13
sg1073
I10
sg1074
g212
sg1076
g1287
sbag0
(g1068
g2
Ntp2222
Rp2223
(dp2224
g1072
I13
sg1073
I11
sg1074
g959
sg1076
g1287
sbag0
(g1068
g2
Ntp2225
Rp2226
(dp2227
g1072
I13
sg1073
I12
sg1074
g608
sg1076
g1287
sbag0
(g1068
g2
Ntp2228
Rp2229
(dp2230
g1072
I13
sg1073
I13
sg1074
g291
sg1076
g1287
sbag0
(g1068
g2
Ntp2231
Rp2232
(dp2233
g1072
I13
sg1073
I14
sg1074
g1029
sg1076
g1287
sbag0
(g1068
g2
Ntp2234
Rp2235
(dp2236
g1072
I13
sg1073
I15
sg1074
g683
sg1076
g1287
sbag0
(g1068
g2
Ntp2237
Rp2238
(dp2239
g1072
I13
sg1073
I16
sg1074
g359
sg1076
g1287
sbag0
(g1068
g2
Ntp2240
Rp2241
(dp2242
g1072
I13
sg1073
I17
sg1074
g47
sg1076
g1287
sbag0
(g1068
g2
Ntp2243
Rp2244
(dp2245
g1072
I13
sg1073
I18
sg1074
g778
sg1076
g1287
sbag0
(g1068
g2
Ntp2246
Rp2247
(dp2248
g1072
I13
sg1073
I19
sg1074
g441
sg1076
g1287
sbag0
(g1068
g2
Ntp2249
Rp2250
(dp2251
g1072
I20
sg1073
I13
sg1074
g144
sg1076
g1328
sbag0
(g1068
g2
Ntp2252
Rp2253
(dp2254
g1072
I13
sg1073
I21
sg1074
g883
sg1076
g1287
sbag0
(g1068
g2
Ntp2255
Rp2256
(dp2257
g1072
I22
sg1073
I13
sg1074
g536
sg1076
g1328
sbag0
(g1068
g2
Ntp2258
Rp2259
(dp2260
g1072
I13
sg1073
I23
sg1074
(lp2261
sg1076
g1077
sbag0
(g1068
g2
Ntp2262
Rp2263
(dp2264
g1072
I13
sg1073
I24
sg1074
(lp2265
sg1076
g1077
sbaa(lp2266
g0
(g1068
g2
Ntp2267
Rp2268
(dp2269
g1072
I14
sg1073
I0
sg1074
(lp2270
sg1076
g1077
sbag0
(g1068
g2
Ntp2271
Rp2272
(dp2273
g1072
I14
sg1073
I1
sg1074
(lp2274
sg1076
g1077
sbag0
(g1068
g2
Ntp2275
Rp2276
(dp2277
g1072
I14
sg1073
I2
sg1074
(lp2278
sg1076
g1077
sbag0
(g1068
g2
Ntp2279
Rp2280
(dp2281
g1072
I3
sg1073
I14
sg1074
g522
sg1076
g1382
sbag0
(g1068
g2
Ntp2282
Rp2283
(dp2284
g1072
I14
sg1073
I4
sg1074
g30
sg1076
g1287
sbag0
(g1068
g2
Ntp2285
Rp2286
(dp2287
g1072
I5
sg1073
I14
sg1074
g347
sg1076
g1382
sbag0
(g1068
g2
Ntp2288
Rp2289
(dp2290
g1072
I6
sg1073
I14
sg1074
g425
sg1076
g1328
sbag0
(g1068
g2
Ntp2291
Rp2292
(dp2293
g1072
I7
sg1073
I14
sg1074
g753
sg1076
g1328
sbag0
(g1068
g2
Ntp2294
Rp2295
(dp2296
g1072
I8
sg1073
I14
sg1074
g494
sg1076
g1312
sbag0
(g1068
g2
Ntp2297
Rp2298
(dp2299
g1072
I9
sg1073
I14
sg1074
g328
sg1076
g1312
sbag0
(g1068
g2
Ntp2300
Rp2301
(dp2302
g1072
I10
sg1073
I14
sg1074
g858
sg1076
g1328
sbag0
(g1068
g2
Ntp2303
Rp2304
(dp2305
g1072
I11
sg1073
I14
sg1074
g663
sg1076
g1312
sbag0
(g1068
g2
Ntp2306
Rp2307
(dp2308
g1072
I12
sg1073
I14
sg1074
g904
sg1076
g1328
sbag0
(g1068
g2
Ntp2309
Rp2310
(dp2311
g1072
I13
sg1073
I14
sg1074
g703
sg1076
g1328
sbag0
(g1068
g2
Ntp2312
Rp2313
(dp2314
g1072
I14
sg1073
I14
sg1074
g940
sg1076
g1328
sbag0
(g1068
g2
Ntp2315
Rp2316
(dp2317
g1072
I15
sg1073
I14
sg1074
g196
sg1076
g1328
sbag0
(g1068
g2
Ntp2318
Rp2319
(dp2320
g1072
I16
sg1073
I14
sg1074
g223
sg1076
g1328
sbag0
(g1068
g2
Ntp2321
Rp2322
(dp2323
g1072
I17
sg1073
I14
sg1074
g41
sg1076
g1328
sbag0
(g1068
g2
Ntp2324
Rp2325
(dp2326
g1072
I14
sg1073
I18
sg1074
g543
sg1076
g1287
sbag0
(g1068
g2
Ntp2327
Rp2328
(dp2329
g1072
I19
sg1073
I14
sg1074
g363
sg1076
g1328
sbag0
(g1068
g2
Ntp2330
Rp2331
(dp2332
g1072
I20
sg1073
I14
sg1074
g578
sg1076
g1312
sbag0
(g1068
g2
Ntp2333
Rp2334
(dp2335
g1072
I14
sg1073
I21
sg1074
g147
sg1076
g1287
sbag0
(g1068
g2
Ntp2336
Rp2337
(dp2338
g1072
I22
sg1073
I14
sg1074
g880
sg1076
g1328
sbag0
(g1068
g2
Ntp2339
Rp2340
(dp2341
g1072
I14
sg1073
I23
sg1074
(lp2342
sg1076
g1077
sbag0
(g1068
g2
Ntp2343
Rp2344
(dp2345
g1072
I14
sg1073
I24
sg1074
(lp2346
sg1076
g1077
sbaa(lp2347
g0
(g1068
g2
Ntp2348
Rp2349
(dp2350
g1072
I15
sg1073
I0
sg1074
(lp2351
sg1076
g1077
sbag0
(g1068
g2
Ntp2352
Rp2353
(dp2354
g1072
I15
sg1073
I1
sg1074
(lp2355
sg1076
g1077
sbag0
(g1068
g2
Ntp2356
Rp2357
(dp2358
g1072
I15
sg1073
I2
sg1074
(lp2359
sg1076
g1077
sbag0
(g1068
g2
Ntp2360
Rp2361
(dp2362
g1072
I3
sg1073
I15
sg1074
g680
sg1076
g1382
sbag0
(g1068
g2
Ntp2363
Rp2364
(dp2365
g1072
I15
sg1073
I4
sg1074
g140
sg1076
g1287
sbag0
(g1068
g2
Ntp2366
Rp2367
(dp2368
g1072
I15
sg1073
I5
sg1074
g876
sg1076
g1287
sbag0
(g1068
g2
Ntp2369
Rp2370
(dp2371
g1072
I15
sg1073
I6
sg1074
g774
sg1076
g1287
sbag0
(g1068
g2
Ntp2372
Rp2373
(dp2374
g1072
I15
sg1073
I7
sg1074
g437
sg1076
g1287
sbag0
(g1068
g2
Ntp2375
Rp2376
(dp2377
g1072
I15
sg1073
I8
sg1074
g787
sg1076
g1287
sbag0
(g1068
g2
Ntp2378
Rp2379
(dp2380
g1072
I15
sg1073
I9
sg1074
g977
sg1076
g1287
sbag0
(g1068
g2
Ntp2381
Rp2382
(dp2383
g1072
I15
sg1073
I10
sg1074
g676
sg1076
g1287
sbag0
(g1068
g2
Ntp2384
Rp2385
(dp2386
g1072
I15
sg1073
I11
sg1074
g622
sg1076
g1287
sbag0
(g1068
g2
Ntp2387
Rp2388
(dp2389
g1072
I15
sg1073
I12
sg1074
g635
sg1076
g1287
sbag0
(g1068
g2
Ntp2390
Rp2391
(dp2392
g1072
I15
sg1073
I13
sg1074
g570
sg1076
g1287
sbag0
(g1068
g2
Ntp2393
Rp2394
(dp2395
g1072
I15
sg1073
I14
sg1074
g73
sg1076
g1287
sbag0
(g1068
g2
Ntp2396
Rp2397
(dp2398
g1072
I15
sg1073
I15
sg1074
g955
sg1076
g1287
sbag0
(g1068
g2
Ntp2399
Rp2400
(dp2401
g1072
I15
sg1073
I16
sg1074
g928
sg1076
g1287
sbag0
(g1068
g2
Ntp2402
Rp2403
(dp2404
g1072
I17
sg1073
I15
sg1074
g619
sg1076
g1328
sbag0
(g1068
g2
Ntp2405
Rp2406
(dp2407
g1072
I15
sg1073
I18
sg1074
g165
sg1076
g1287
sbag0
(g1068
g2
Ntp2408
Rp2409
(dp2410
g1072
I19
sg1073
I15
sg1074
g316
sg1076
g1382
sbag0
(g1068
g2
Ntp2411
Rp2412
(dp2413
g1072
I20
sg1073
I15
sg1074
g820
sg1076
g1328
sbag0
(g1068
g2
Ntp2414
Rp2415
(dp2416
g1072
I15
sg1073
I21
sg1074
g529
sg1076
g1287
sbag0
(g1068
g2
Ntp2417
Rp2418
(dp2419
g1072
I22
sg1073
I15
sg1074
g340
sg1076
g1382
sbag0
(g1068
g2
Ntp2420
Rp2421
(dp2422
g1072
I15
sg1073
I23
sg1074
(lp2423
sg1076
g1077
sbag0
(g1068
g2
Ntp2424
Rp2425
(dp2426
g1072
I15
sg1073
I24
sg1074
(lp2427
sg1076
g1077
sbaa(lp2428
g0
(g1068
g2
Ntp2429
Rp2430
(dp2431
g1072
I16
sg1073
I0
sg1074
(lp2432
sg1076
g1077
sbag0
(g1068
g2
Ntp2433
Rp2434
(dp2435
g1072
I16
sg1073
I1
sg1074
(lp2436
sg1076
g1077
sbag0
(g1068
g2
Ntp2437
Rp2438
(dp2439
g1072
I16
sg1073
I2
sg1074
(lp2440
sg1076
g1077
sbag0
(g1068
g2
Ntp2441
Rp2442
(dp2443
g1072
I16
sg1073
I3
sg1074
(lp2444
sg1076
g1077
sbag0
(g1068
g2
Ntp2445
Rp2446
(dp2447
g1072
I4
sg1073
I16
sg1074
g401
sg1076
g1312
sbag0
(g1068
g2
Ntp2448
Rp2449
(dp2450
g1072
I5
sg1073
I16
sg1074
g734
sg1076
g1328
sbag0
(g1068
g2
Ntp2451
Rp2452
(dp2453
g1072
I6
sg1073
I16
sg1074
g22
sg1076
g1328
sbag0
(g1068
g2
Ntp2454
Rp2455
(dp2456
g1072
I7
sg1073
I16
sg1074
g331
sg1076
g1328
sbag0
(g1068
g2
Ntp2457
Rp2458
(dp2459
g1072
I8
sg1073
I16
sg1074
g229
sg1076
g1382
sbag0
(g1068
g2
Ntp2460
Rp2461
(dp2462
g1072
I9
sg1073
I16
sg1074
g654
sg1076
g1328
sbag0
(g1068
g2
Ntp2463
Rp2464
(dp2465
g1072
I10
sg1073
I16
sg1074
g60
sg1076
g1328
sbag0
(g1068
g2
Ntp2466
Rp2467
(dp2468
g1072
I11
sg1073
I16
sg1074
g981
sg1076
g1328
sbag0
(g1068
g2
Ntp2469
Rp2470
(dp2471
g1072
I12
sg1073
I16
sg1074
g356
sg1076
g1328
sbag0
(g1068
g2
Ntp2472
Rp2473
(dp2474
g1072
I13
sg1073
I16
sg1074
g319
sg1076
g1328
sbag0
(g1068
g2
Ntp2475
Rp2476
(dp2477
g1072
I14
sg1073
I16
sg1074
g767
sg1076
g1312
sbag0
(g1068
g2
Ntp2478
Rp2479
(dp2480
g1072
I15
sg1073
I16
sg1074
g1047
sg1076
g1328
sbag0
(g1068
g2
Ntp2481
Rp2482
(dp2483
g1072
I16
sg1073
I16
sg1074
g994
sg1076
g1287
sbag0
(g1068
g2
Ntp2484
Rp2485
(dp2486
g1072
I17
sg1073
I16
sg1074
g284
sg1076
g1328
sbag0
(g1068
g2
Ntp2487
Rp2488
(dp2489
g1072
I16
sg1073
I18
sg1074
g244
sg1076
g1287
sbag0
(g1068
g2
Ntp2490
Rp2491
(dp2492
g1072
I16
sg1073
I19
sg1074
g598
sg1076
g1287
sbag0
(g1068
g2
Ntp2493
Rp2494
(dp2495
g1072
I20
sg1073
I16
sg1074
g1063
sg1076
g1328
sbag0
(g1068
g2
Ntp2496
Rp2497
(dp2498
g1072
I16
sg1073
I21
sg1074
g302
sg1076
g1287
sbag0
(g1068
g2
Ntp2499
Rp2500
(dp2501
g1072
I22
sg1073
I16
sg1074
g366
sg1076
g1382
sbag0
(g1068
g2
Ntp2502
Rp2503
(dp2504
g1072
I16
sg1073
I23
sg1074
(lp2505
sg1076
g1077
sbag0
(g1068
g2
Ntp2506
Rp2507
(dp2508
g1072
I16
sg1073
I24
sg1074
(lp2509
sg1076
g1077
sbaa(lp2510
g0
(g1068
g2
Ntp2511
Rp2512
(dp2513
g1072
I17
sg1073
I0
sg1074
(lp2514
sg1076
g1077
sbag0
(g1068
g2
Ntp2515
Rp2516
(dp2517
g1072
I17
sg1073
I1
sg1074
(lp2518
sg1076
g1077
sbag0
(g1068
g2
Ntp2519
Rp2520
(dp2521
g1072
I17
sg1073
I2
sg1074
(lp2522
sg1076
g1077
sbag0
(g1068
g2
Ntp2523
Rp2524
(dp2525
g1072
I17
sg1073
I3
sg1074
(lp2526
sg1076
g1077
sbag0
(g1068
g2
Ntp2527
Rp2528
(dp2529
g1072
I17
sg1073
I4
sg1074
(lp2530
sg1076
g1077
sbag0
(g1068
g2
Ntp2531
Rp2532
(dp2533
g1072
I17
sg1073
I5
sg1074
(lp2534
sg1076
g1077
sbag0
(g1068
g2
Ntp2535
Rp2536
(dp2537
g1072
I17
sg1073
I6
sg1074
(lp2538
sg1076
g1077
sbag0
(g1068
g2
Ntp2539
Rp2540
(dp2541
g1072
I17
sg1073
I7
sg1074
(lp2542
sg1076
g1077
sbag0
(g1068
g2
Ntp2543
Rp2544
(dp2545
g1072
I17
sg1073
I8
sg1074
(lp2546
sg1076
g1077
sbag0
(g1068
g2
Ntp2547
Rp2548
(dp2549
g1072
I17
sg1073
I9
sg1074
(lp2550
sg1076
g1077
sbag0
(g1068
g2
Ntp2551
Rp2552
(dp2553
g1072
I17
sg1073
I10
sg1074
(lp2554
sg1076
g1077
sbag0
(g1068
g2
Ntp2555
Rp2556
(dp2557
g1072
I17
sg1073
I11
sg1074
(lp2558
sg1076
g1077
sbag0
(g1068
g2
Ntp2559
Rp2560
(dp2561
g1072
I17
sg1073
I12
sg1074
(lp2562
sg1076
g1077
sbag0
(g1068
g2
Ntp2563
Rp2564
(dp2565
g1072
I17
sg1073
I13
sg1074
(lp2566
sg1076
g1077
sbag0
(g1068
g2
Ntp2567
Rp2568
(dp2569
g1072
I17
sg1073
I14
sg1074
(lp2570
sg1076
g1077
sbag0
(g1068
g2
Ntp2571
Rp2572
(dp2573
g1072
I15
sg1073
I17
sg1074
g601
sg1076
g1382
sbag0
(g1068
g2
Ntp2574
Rp2575
(dp2576
g1072
I17
sg1073
I16
sg1074
g872
sg1076
g1287
sbag0
(g1068
g2
Ntp2577
Rp2578
(dp2579
g1072
I17
sg1073
I17
sg1074
g533
sg1076
g1382
sbag0
(g1068
g2
Ntp2580
Rp2581
(dp2582
g1072
I18
sg1073
I17
sg1074
g226
sg1076
g1328
sbag0
(g1068
g2
Ntp2583
Rp2584
(dp2585
g1072
I19
sg1073
I17
sg1074
g971
sg1076
g1328
sbag0
(g1068
g2
Ntp2586
Rp2587
(dp2588
g1072
I20
sg1073
I17
sg1074
g44
sg1076
g1312
sbag0
(g1068
g2
Ntp2589
Rp2590
(dp2591
g1072
I17
sg1073
I21
sg1074
g770
sg1076
g1287
sbag0
(g1068
g2
Ntp2592
Rp2593
(dp2594
g1072
I22
sg1073
I17
sg1074
g434
sg1076
g1382
sbag0
(g1068
g2
Ntp2595
Rp2596
(dp2597
g1072
I17
sg1073
I23
sg1074
(lp2598
sg1076
g1077
sbag0
(g1068
g2
Ntp2599
Rp2600
(dp2601
g1072
I17
sg1073
I24
sg1074
(lp2602
sg1076
g1077
sbaa(lp2603
g0
(g1068
g2
Ntp2604
Rp2605
(dp2606
g1072
I18
sg1073
I0
sg1074
(lp2607
sg1076
g1077
sbag0
(g1068
g2
Ntp2608
Rp2609
(dp2610
g1072
I18
sg1073
I1
sg1074
(lp2611
sg1076
g1077
sbag0
(g1068
g2
Ntp2612
Rp2613
(dp2614
g1072
I18
sg1073
I2
sg1074
(lp2615
sg1076
g1077
sbag0
(g1068
g2
Ntp2616
Rp2617
(dp2618
g1072
I18
sg1073
I3
sg1074
(lp2619
sg1076
g1077
sbag0
(g1068
g2
Ntp2620
Rp2621
(dp2622
g1072
I18
sg1073
I4
sg1074
(lp2623
sg1076
g1077
sbag0
(g1068
g2
Ntp2624
Rp2625
(dp2626
g1072
I18
sg1073
I5
sg1074
(lp2627
sg1076
g1077
sbag0
(g1068
g2
Ntp2628
Rp2629
(dp2630
g1072
I18
sg1073
I6
sg1074
(lp2631
sg1076
g1077
sbag0
(g1068
g2
Ntp2632
Rp2633
(dp2634
g1072
I18
sg1073
I7
sg1074
(lp2635
sg1076
g1077
sbag0
(g1068
g2
Ntp2636
Rp2637
(dp2638
g1072
I18
sg1073
I8
sg1074
(lp2639
sg1076
g1077
sbag0
(g1068
g2
Ntp2640
Rp2641
(dp2642
g1072
I18
sg1073
I9
sg1074
(lp2643
sg1076
g1077
sbag0
(g1068
g2
Ntp2644
Rp2645
(dp2646
g1072
I18
sg1073
I10
sg1074
(lp2647
sg1076
g1077
sbag0
(g1068
g2
Ntp2648
Rp2649
(dp2650
g1072
I18
sg1073
I11
sg1074
(lp2651
sg1076
g1077
sbag0
(g1068
g2
Ntp2652
Rp2653
(dp2654
g1072
I18
sg1073
I12
sg1074
(lp2655
sg1076
g1077
sbag0
(g1068
g2
Ntp2656
Rp2657
(dp2658
g1072
I18
sg1073
I13
sg1074
(lp2659
sg1076
g1077
sbag0
(g1068
g2
Ntp2660
Rp2661
(dp2662
g1072
I18
sg1073
I14
sg1074
(lp2663
sg1076
g1077
sbag0
(g1068
g2
Ntp2664
Rp2665
(dp2666
g1072
I15
sg1073
I18
sg1074
g299
sg1076
g1328
sbag0
(g1068
g2
Ntp2667
Rp2668
(dp2669
g1072
I18
sg1073
I16
sg1074
g236
sg1076
g1287
sbag0
(g1068
g2
Ntp2670
Rp2671
(dp2672
g1072
I18
sg1073
I17
sg1074
g691
sg1076
g1287
sbag0
(g1068
g2
Ntp2673
Rp2674
(dp2675
g1072
I18
sg1073
I18
sg1074
g783
sg1076
g1287
sbag0
(g1068
g2
Ntp2676
Rp2677
(dp2678
g1072
I18
sg1073
I19
sg1074
g56
sg1076
g1287
sbag0
(g1068
g2
Ntp2679
Rp2680
(dp2681
g1072
I18
sg1073
I20
sg1074
g763
sg1076
g1287
sbag0
(g1068
g2
Ntp2682
Rp2683
(dp2684
g1072
I18
sg1073
I21
sg1074
g445
sg1076
g1287
sbag0
(g1068
g2
Ntp2685
Rp2686
(dp2687
g1072
I22
sg1073
I18
sg1074
g477
sg1076
g1328
sbag0
(g1068
g2
Ntp2688
Rp2689
(dp2690
g1072
I18
sg1073
I23
sg1074
(lp2691
sg1076
g1077
sbag0
(g1068
g2
Ntp2692
Rp2693
(dp2694
g1072
I18
sg1073
I24
sg1074
(lp2695
sg1076
g1077
sbaa(lp2696
g0
(g1068
g2
Ntp2697
Rp2698
(dp2699
g1072
I19
sg1073
I0
sg1074
(lp2700
sg1076
g1077
sbag0
(g1068
g2
Ntp2701
Rp2702
(dp2703
g1072
I19
sg1073
I1
sg1074
(lp2704
sg1076
g1077
sbag0
(g1068
g2
Ntp2705
Rp2706
(dp2707
g1072
I19
sg1073
I2
sg1074
(lp2708
sg1076
g1077
sbag0
(g1068
g2
Ntp2709
Rp2710
(dp2711
g1072
I19
sg1073
I3
sg1074
(lp2712
sg1076
g1077
sbag0
(g1068
g2
Ntp2713
Rp2714
(dp2715
g1072
I19
sg1073
I4
sg1074
(lp2716
sg1076
g1077
sbag0
(g1068
g2
Ntp2717
Rp2718
(dp2719
g1072
I19
sg1073
I5
sg1074
(lp2720
sg1076
g1077
sbag0
(g1068
g2
Ntp2721
Rp2722
(dp2723
g1072
I19
sg1073
I6
sg1074
(lp2724
sg1076
g1077
sbag0
(g1068
g2
Ntp2725
Rp2726
(dp2727
g1072
I19
sg1073
I7
sg1074
(lp2728
sg1076
g1077
sbag0
(g1068
g2
Ntp2729
Rp2730
(dp2731
g1072
I19
sg1073
I8
sg1074
(lp2732
sg1076
g1077
sbag0
(g1068
g2
Ntp2733
Rp2734
(dp2735
g1072
I19
sg1073
I9
sg1074
(lp2736
sg1076
g1077
sbag0
(g1068
g2
Ntp2737
Rp2738
(dp2739
g1072
I19
sg1073
I10
sg1074
(lp2740
sg1076
g1077
sbag0
(g1068
g2
Ntp2741
Rp2742
(dp2743
g1072
I19
sg1073
I11
sg1074
(lp2744
sg1076
g1077
sbag0
(g1068
g2
Ntp2745
Rp2746
(dp2747
g1072
I19
sg1073
I12
sg1074
(lp2748
sg1076
g1077
sbag0
(g1068
g2
Ntp2749
Rp2750
(dp2751
g1072
I19
sg1073
I13
sg1074
(lp2752
sg1076
g1077
sbag0
(g1068
g2
Ntp2753
Rp2754
(dp2755
g1072
I19
sg1073
I14
sg1074
(lp2756
sg1076
g1077
sbag0
(g1068
g2
Ntp2757
Rp2758
(dp2759
g1072
I19
sg1073
I15
sg1074
(lp2760
sg1076
g1077
sbag0
(g1068
g2
Ntp2761
Rp2762
(dp2763
g1072
I16
sg1073
I19
sg1074
g252
sg1076
g1382
sbag0
(g1068
g2
Ntp2764
Rp2765
(dp2766
g1072
I17
sg1073
I19
sg1074
g414
sg1076
g1382
sbag0
(g1068
g2
Ntp2767
Rp2768
(dp2769
g1072
I18
sg1073
I19
sg1074
g337
sg1076
g1382
sbag0
(g1068
g2
Ntp2770
Rp2771
(dp2772
g1072
I19
sg1073
I19
sg1074
g80
sg1076
g1328
sbag0
(g1068
g2
Ntp2773
Rp2774
(dp2775
g1072
I20
sg1073
I19
sg1074
g626
sg1076
g1328
sbag0
(g1068
g2
Ntp2776
Rp2777
(dp2778
g1072
I21
sg1073
I19
sg1074
g791
sg1076
g1328
sbag0
(g1068
g2
Ntp2779
Rp2780
(dp2781
g1072
I19
sg1073
I22
sg1074
(lp2782
sg1076
g1077
sbag0
(g1068
g2
Ntp2783
Rp2784
(dp2785
g1072
I19
sg1073
I23
sg1074
(lp2786
sg1076
g1077
sbag0
(g1068
g2
Ntp2787
Rp2788
(dp2789
g1072
I19
sg1073
I24
sg1074
(lp2790
sg1076
g1077
sbaa(lp2791
g0
(g1068
g2
Ntp2792
Rp2793
(dp2794
g1072
I20
sg1073
I0
sg1074
(lp2795
sg1076
g1077
sbag0
(g1068
g2
Ntp2796
Rp2797
(dp2798
g1072
I20
sg1073
I1
sg1074
(lp2799
sg1076
g1077
sbag0
(g1068
g2
Ntp2800
Rp2801
(dp2802
g1072
I20
sg1073
I2
sg1074
(lp2803
sg1076
g1077
sbag0
(g1068
g2
Ntp2804
Rp2805
(dp2806
g1072
I20
sg1073
I3
sg1074
(lp2807
sg1076
g1077
sbag0
(g1068
g2
Ntp2808
Rp2809
(dp2810
g1072
I20
sg1073
I4
sg1074
(lp2811
sg1076
g1077
sbag0
(g1068
g2
Ntp2812
Rp2813
(dp2814
g1072
I20
sg1073
I5
sg1074
(lp2815
sg1076
g1077
sbag0
(g1068
g2
Ntp2816
Rp2817
(dp2818
g1072
I20
sg1073
I6
sg1074
(lp2819
sg1076
g1077
sbag0
(g1068
g2
Ntp2820
Rp2821
(dp2822
g1072
I20
sg1073
I7
sg1074
(lp2823
sg1076
g1077
sbag0
(g1068
g2
Ntp2824
Rp2825
(dp2826
g1072
I20
sg1073
I8
sg1074
(lp2827
sg1076
g1077
sbag0
(g1068
g2
Ntp2828
Rp2829
(dp2830
g1072
I20
sg1073
I9
sg1074
(lp2831
sg1076
g1077
sbag0
(g1068
g2
Ntp2832
Rp2833
(dp2834
g1072
I20
sg1073
I10
sg1074
(lp2835
sg1076
g1077
sbag0
(g1068
g2
Ntp2836
Rp2837
(dp2838
g1072
I20
sg1073
I11
sg1074
(lp2839
sg1076
g1077
sbag0
(g1068
g2
Ntp2840
Rp2841
(dp2842
g1072
I20
sg1073
I12
sg1074
(lp2843
sg1076
g1077
sbag0
(g1068
g2
Ntp2844
Rp2845
(dp2846
g1072
I20
sg1073
I13
sg1074
(lp2847
sg1076
g1077
sbag0
(g1068
g2
Ntp2848
Rp2849
(dp2850
g1072
I20
sg1073
I14
sg1074
(lp2851
sg1076
g1077
sbag0
(g1068
g2
Ntp2852
Rp2853
(dp2854
g1072
I20
sg1073
I15
sg1074
(lp2855
sg1076
g1077
sbag0
(g1068
g2
Ntp2856
Rp2857
(dp2858
g1072
I20
sg1073
I16
sg1074
(lp2859
sg1076
g1077
sbag0
(g1068
g2
Ntp2860
Rp2861
(dp2862
g1072
I20
sg1073
I17
sg1074
(lp2863
sg1076
g1077
sbag0
(g1068
g2
Ntp2864
Rp2865
(dp2866
g1072
I20
sg1073
I18
sg1074
(lp2867
sg1076
g1077
sbag0
(g1068
g2
Ntp2868
Rp2869
(dp2870
g1072
I20
sg1073
I19
sg1074
(lp2871
sg1076
g1077
sbag0
(g1068
g2
Ntp2872
Rp2873
(dp2874
g1072
I20
sg1073
I20
sg1074
(lp2875
sg1076
g1077
sbag0
(g1068
g2
Ntp2876
Rp2877
(dp2878
g1072
I20
sg1073
I21
sg1074
(lp2879
sg1076
g1077
sbag0
(g1068
g2
Ntp2880
Rp2881
(dp2882
g1072
I20
sg1073
I22
sg1074
(lp2883
sg1076
g1077
sbag0
(g1068
g2
Ntp2884
Rp2885
(dp2886
g1072
I20
sg1073
I23
sg1074
(lp2887
sg1076
g1077
sbag0
(g1068
g2
Ntp2888
Rp2889
(dp2890
g1072
I20
sg1073
I24
sg1074
(lp2891
sg1076
g1077
sbaa(lp2892
g0
(g1068
g2
Ntp2893
Rp2894
(dp2895
g1072
I21
sg1073
I0
sg1074
(lp2896
sg1076
g1077
sbag0
(g1068
g2
Ntp2897
Rp2898
(dp2899
g1072
I21
sg1073
I1
sg1074
(lp2900
sg1076
g1077
sbag0
(g1068
g2
Ntp2901
Rp2902
(dp2903
g1072
I21
sg1073
I2
sg1074
(lp2904
sg1076
g1077
sbag0
(g1068
g2
Ntp2905
Rp2906
(dp2907
g1072
I21
sg1073
I3
sg1074
(lp2908
sg1076
g1077
sbag0
(g1068
g2
Ntp2909
Rp2910
(dp2911
g1072
I21
sg1073
I4
sg1074
(lp2912
sg1076
g1077
sbag0
(g1068
g2
Ntp2913
Rp2914
(dp2915
g1072
I21
sg1073
I5
sg1074
(lp2916
sg1076
g1077
sbag0
(g1068
g2
Ntp2917
Rp2918
(dp2919
g1072
I21
sg1073
I6
sg1074
(lp2920
sg1076
g1077
sbag0
(g1068
g2
Ntp2921
Rp2922
(dp2923
g1072
I21
sg1073
I7
sg1074
(lp2924
sg1076
g1077
sbag0
(g1068
g2
Ntp2925
Rp2926
(dp2927
g1072
I21
sg1073
I8
sg1074
(lp2928
sg1076
g1077
sbag0
(g1068
g2
Ntp2929
Rp2930
(dp2931
g1072
I21
sg1073
I9
sg1074
(lp2932
sg1076
g1077
sbag0
(g1068
g2
Ntp2933
Rp2934
(dp2935
g1072
I21
sg1073
I10
sg1074
(lp2936
sg1076
g1077
sbag0
(g1068
g2
Ntp2937
Rp2938
(dp2939
g1072
I21
sg1073
I11
sg1074
(lp2940
sg1076
g1077
sbag0
(g1068
g2
Ntp2941
Rp2942
(dp2943
g1072
I21
sg1073
I12
sg1074
(lp2944
sg1076
g1077
sbag0
(g1068
g2
Ntp2945
Rp2946
(dp2947
g1072
I21
sg1073
I13
sg1074
(lp2948
sg1076
g1077
sbag0
(g1068
g2
Ntp2949
Rp2950
(dp2951
g1072
I21
sg1073
I14
sg1074
(lp2952
sg1076
g1077
sbag0
(g1068
g2
Ntp2953
Rp2954
(dp2955
g1072
I21
sg1073
I15
sg1074
(lp2956
sg1076
g1077
sbag0
(g1068
g2
Ntp2957
Rp2958
(dp2959
g1072
I21
sg1073
I16
sg1074
(lp2960
sg1076
g1077
sbag0
(g1068
g2
Ntp2961
Rp2962
(dp2963
g1072
I21
sg1073
I17
sg1074
(lp2964
sg1076
g1077
sbag0
(g1068
g2
Ntp2965
Rp2966
(dp2967
g1072
I21
sg1073
I18
sg1074
(lp2968
sg1076
g1077
sbag0
(g1068
g2
Ntp2969
Rp2970
(dp2971
g1072
I21
sg1073
I19
sg1074
(lp2972
sg1076
g1077
sbag0
(g1068
g2
Ntp2973
Rp2974
(dp2975
g1072
I21
sg1073
I20
sg1074
(lp2976
sg1076
g1077
sbag0
(g1068
g2
Ntp2977
Rp2978
(dp2979
g1072
I21
sg1073
I21
sg1074
(lp2980
sg1076
g1077
sbag0
(g1068
g2
Ntp2981
Rp2982
(dp2983
g1072
I21
sg1073
I22
sg1074
(lp2984
sg1076
g1077
sbag0
(g1068
g2
Ntp2985
Rp2986
(dp2987
g1072
I21
sg1073
I23
sg1074
(lp2988
sg1076
g1077
sbag0
(g1068
g2
Ntp2989
Rp2990
(dp2991
g1072
I21
sg1073
I24
sg1074
(lp2992
sg1076
g1077
sbaa(lp2993
g0
(g1068
g2
Ntp2994
Rp2995
(dp2996
g1072
I22
sg1073
I0
sg1074
(lp2997
sg1076
g1077
sbag0
(g1068
g2
Ntp2998
Rp2999
(dp3000
g1072
I22
sg1073
I1
sg1074
(lp3001
sg1076
g1077
sbag0
(g1068
g2
Ntp3002
Rp3003
(dp3004
g1072
I22
sg1073
I2
sg1074
(lp3005
sg1076
g1077
sbag0
(g1068
g2
Ntp3006
Rp3007
(dp3008
g1072
I22
sg1073
I3
sg1074
(lp3009
sg1076
g1077
sbag0
(g1068
g2
Ntp3010
Rp3011
(dp3012
g1072
I22
sg1073
I4
sg1074
(lp3013
sg1076
g1077
sbag0
(g1068
g2
Ntp3014
Rp3015
(dp3016
g1072
I22
sg1073
I5
sg1074
(lp3017
sg1076
g1077
sbag0
(g1068
g2
Ntp3018
Rp3019
(dp3020
g1072
I22
sg1073
I6
sg1074
(lp3021
sg1076
g1077
sbag0
(g1068
g2
Ntp3022
Rp3023
(dp3024
g1072
I22
sg1073
I7
sg1074
(lp3025
sg1076
g1077
sbag0
(g1068
g2
Ntp3026
Rp3027
(dp3028
g1072
I22
sg1073
I8
sg1074
(lp3029
sg1076
g1077
sbag0
(g1068
g2
Ntp3030
Rp3031
(dp3032
g1072
I22
sg1073
I9
sg1074
(lp3033
sg1076
g1077
sbag0
(g1068
g2
Ntp3034
Rp3035
(dp3036
g1072
I22
sg1073
I10
sg1074
(lp3037
sg1076
g1077
sbag0
(g1068
g2
Ntp3038
Rp3039
(dp3040
g1072
I22
sg1073
I11
sg1074
(lp3041
sg1076
g1077
sbag0
(g1068
g2
Ntp3042
Rp3043
(dp3044
g1072
I22
sg1073
I12
sg1074
(lp3045
sg1076
g1077
sbag0
(g1068
g2
Ntp3046
Rp3047
(dp3048
g1072
I22
sg1073
I13
sg1074
(lp3049
sg1076
g1077
sbag0
(g1068
g2
Ntp3050
Rp3051
(dp3052
g1072
I22
sg1073
I14
sg1074
(lp3053
sg1076
g1077
sbag0
(g1068
g2
Ntp3054
Rp3055
(dp3056
g1072
I22
sg1073
I15
sg1074
(lp3057
sg1076
g1077
sbag0
(g1068
g2
Ntp3058
Rp3059
(dp3060
g1072
I22
sg1073
I16
sg1074
(lp3061
sg1076
g1077
sbag0
(g1068
g2
Ntp3062
Rp3063
(dp3064
g1072
I22
sg1073
I17
sg1074
(lp3065
sg1076
g1077
sbag0
(g1068
g2
Ntp3066
Rp3067
(dp3068
g1072
I22
sg1073
I18
sg1074
(lp3069
sg1076
g1077
sbag0
(g1068
g2
Ntp3070
Rp3071
(dp3072
g1072
I22
sg1073
I19
sg1074
(lp3073
sg1076
g1077
sbag0
(g1068
g2
Ntp3074
Rp3075
(dp3076
g1072
I22
sg1073
I20
sg1074
(lp3077
sg1076
g1077
sbag0
(g1068
g2
Ntp3078
Rp3079
(dp3080
g1072
I22
sg1073
I21
sg1074
(lp3081
sg1076
g1077
sbag0
(g1068
g2
Ntp3082
Rp3083
(dp3084
g1072
I22
sg1073
I22
sg1074
(lp3085
sg1076
g1077
sbag0
(g1068
g2
Ntp3086
Rp3087
(dp3088
g1072
I22
sg1073
I23
sg1074
(lp3089
sg1076
g1077
sbag0
(g1068
g2
Ntp3090
Rp3091
(dp3092
g1072
I22
sg1073
I24
sg1074
(lp3093
sg1076
g1077
sbaa(lp3094
g0
(g1068
g2
Ntp3095
Rp3096
(dp3097
g1072
I23
sg1073
I0
sg1074
(lp3098
sg1076
g1077
sbag0
(g1068
g2
Ntp3099
Rp3100
(dp3101
g1072
I23
sg1073
I1
sg1074
(lp3102
sg1076
g1077
sbag0
(g1068
g2
Ntp3103
Rp3104
(dp3105
g1072
I23
sg1073
I2
sg1074
(lp3106
sg1076
g1077
sbag0
(g1068
g2
Ntp3107
Rp3108
(dp3109
g1072
I23
sg1073
I3
sg1074
(lp3110
sg1076
g1077
sbag0
(g1068
g2
Ntp3111
Rp3112
(dp3113
g1072
I23
sg1073
I4
sg1074
(lp3114
sg1076
g1077
sbag0
(g1068
g2
Ntp3115
Rp3116
(dp3117
g1072
I23
sg1073
I5
sg1074
(lp3118
sg1076
g1077
sbag0
(g1068
g2
Ntp3119
Rp3120
(dp3121
g1072
I23
sg1073
I6
sg1074
(lp3122
sg1076
g1077
sbag0
(g1068
g2
Ntp3123
Rp3124
(dp3125
g1072
I23
sg1073
I7
sg1074
(lp3126
sg1076
g1077
sbag0
(g1068
g2
Ntp3127
Rp3128
(dp3129
g1072
I23
sg1073
I8
sg1074
(lp3130
sg1076
g1077
sbag0
(g1068
g2
Ntp3131
Rp3132
(dp3133
g1072
I23
sg1073
I9
sg1074
(lp3134
sg1076
g1077
sbag0
(g1068
g2
Ntp3135
Rp3136
(dp3137
g1072
I23
sg1073
I10
sg1074
(lp3138
sg1076
g1077
sbag0
(g1068
g2
Ntp3139
Rp3140
(dp3141
g1072
I23
sg1073
I11
sg1074
(lp3142
sg1076
g1077
sbag0
(g1068
g2
Ntp3143
Rp3144
(dp3145
g1072
I23
sg1073
I12
sg1074
(lp3146
sg1076
g1077
sbag0
(g1068
g2
Ntp3147
Rp3148
(dp3149
g1072
I23
sg1073
I13
sg1074
(lp3150
sg1076
g1077
sbag0
(g1068
g2
Ntp3151
Rp3152
(dp3153
g1072
I23
sg1073
I14
sg1074
(lp3154
sg1076
g1077
sbag0
(g1068
g2
Ntp3155
Rp3156
(dp3157
g1072
I23
sg1073
I15
sg1074
(lp3158
sg1076
g1077
sbag0
(g1068
g2
Ntp3159
Rp3160
(dp3161
g1072
I23
sg1073
I16
sg1074
(lp3162
sg1076
g1077
sbag0
(g1068
g2
Ntp3163
Rp3164
(dp3165
g1072
I23
sg1073
I17
sg1074
(lp3166
sg1076
g1077
sbag0
(g1068
g2
Ntp3167
Rp3168
(dp3169
g1072
I23
sg1073
I18
sg1074
(lp3170
sg1076
g1077
sbag0
(g1068
g2
Ntp3171
Rp3172
(dp3173
g1072
I23
sg1073
I19
sg1074
(lp3174
sg1076
g1077
sbag0
(g1068
g2
Ntp3175
Rp3176
(dp3177
g1072
I23
sg1073
I20
sg1074
(lp3178
sg1076
g1077
sbag0
(g1068
g2
Ntp3179
Rp3180
(dp3181
g1072
I23
sg1073
I21
sg1074
(lp3182
sg1076
g1077
sbag0
(g1068
g2
Ntp3183
Rp3184
(dp3185
g1072
I23
sg1073
I22
sg1074
(lp3186
sg1076
g1077
sbag0
(g1068
g2
Ntp3187
Rp3188
(dp3189
g1072
I23
sg1073
I23
sg1074
(lp3190
sg1076
g1077
sbag0
(g1068
g2
Ntp3191
Rp3192
(dp3193
g1072
I23
sg1073
I24
sg1074
(lp3194
sg1076
g1077
sbaa(lp3195
g0
(g1068
g2
Ntp3196
Rp3197
(dp3198
g1072
I24
sg1073
I0
sg1074
(lp3199
sg1076
g1077
sbag0
(g1068
g2
Ntp3200
Rp3201
(dp3202
g1072
I24
sg1073
I1
sg1074
(lp3203
sg1076
g1077
sbag0
(g1068
g2
Ntp3204
Rp3205
(dp3206
g1072
I24
sg1073
I2
sg1074
(lp3207
sg1076
g1077
sbag0
(g1068
g2
Ntp3208
Rp3209
(dp3210
g1072
I24
sg1073
I3
sg1074
(lp3211
sg1076
g1077
sbag0
(g1068
g2
Ntp3212
Rp3213
(dp3214
g1072
I24
sg1073
I4
sg1074
(lp3215
sg1076
g1077
sbag0
(g1068
g2
Ntp3216
Rp3217
(dp3218
g1072
I24
sg1073
I5
sg1074
(lp3219
sg1076
g1077
sbag0
(g1068
g2
Ntp3220
Rp3221
(dp3222
g1072
I24
sg1073
I6
sg1074
(lp3223
sg1076
g1077
sbag0
(g1068
g2
Ntp3224
Rp3225
(dp3226
g1072
I24
sg1073
I7
sg1074
(lp3227
sg1076
g1077
sbag0
(g1068
g2
Ntp3228
Rp3229
(dp3230
g1072
I24
sg1073
I8
sg1074
(lp3231
sg1076
g1077
sbag0
(g1068
g2
Ntp3232
Rp3233
(dp3234
g1072
I24
sg1073
I9
sg1074
(lp3235
sg1076
g1077
sbag0
(g1068
g2
Ntp3236
Rp3237
(dp3238
g1072
I24
sg1073
I10
sg1074
(lp3239
sg1076
g1077
sbag0
(g1068
g2
Ntp3240
Rp3241
(dp3242
g1072
I24
sg1073
I11
sg1074
(lp3243
sg1076
g1077
sbag0
(g1068
g2
Ntp3244
Rp3245
(dp3246
g1072
I24
sg1073
I12
sg1074
(lp3247
sg1076
g1077
sbag0
(g1068
g2
Ntp3248
Rp3249
(dp3250
g1072
I24
sg1073
I13
sg1074
(lp3251
sg1076
g1077
sbag0
(g1068
g2
Ntp3252
Rp3253
(dp3254
g1072
I24
sg1073
I14
sg1074
(lp3255
sg1076
g1077
sbag0
(g1068
g2
Ntp3256
Rp3257
(dp3258
g1072
I24
sg1073
I15
sg1074
(lp3259
sg1076
g1077
sbag0
(g1068
g2
Ntp3260
Rp3261
(dp3262
g1072
I24
sg1073
I16
sg1074
(lp3263
sg1076
g1077
sbag0
(g1068
g2
Ntp3264
Rp3265
(dp3266
g1072
I24
sg1073
I17
sg1074
(lp3267
sg1076
g1077
sbag0
(g1068
g2
Ntp3268
Rp3269
(dp3270
g1072
I24
sg1073
I18
sg1074
(lp3271
sg1076
g1077
sbag0
(g1068
g2
Ntp3272
Rp3273
(dp3274
g1072
I24
sg1073
I19
sg1074
(lp3275
sg1076
g1077
sbag0
(g1068
g2
Ntp3276
Rp3277
(dp3278
g1072
I24
sg1073
I20
sg1074
(lp3279
sg1076
g1077
sbag0
(g1068
g2
Ntp3280
Rp3281
(dp3282
g1072
I24
sg1073
I21
sg1074
(lp3283
sg1076
g1077
sbag0
(g1068
g2
Ntp3284
Rp3285
(dp3286
g1072
I24
sg1073
I22
sg1074
(lp3287
sg1076
g1077
sbag0
(g1068
g2
Ntp3288
Rp3289
(dp3290
g1072
I24
sg1073
I23
sg1074
(lp3291
sg1076
g1077
sbag0
(g1068
g2
Ntp3292
Rp3293
(dp3294
g1072
I24
sg1073
I24
sg1074
(lp3295
sg1076
g1077
sbaasS'ludnosc'
p3296
(lp3297
g0
(cgenerowanie_swiata
konsument
p3298
g2
Ntp3299
Rp3300
(dp3301
S'zarobki'
p3302
I4500
sS'wiek'
p3303
I31
sS'okazja'
p3304
I0
sS'zainteresowania'
p3305
(lp3306
S'natura'
p3307
aS'kosmetyki'
p3308
ag3308
asS'domx'
p3309
I11
sS'domy'
p3310
I3
sS'plec'
p3311
S'Mezczyzna'
p3312
sS'pracay'
p3313
I19
sS'pracax'
p3314
I3
sS'wyksztalcenie'
p3315
I3
sS'znajomi'
p3316
(lp3317
I38
aI88
aI97
asbag0
(g3298
g2
Ntp3318
Rp3319
(dp3320
g3302
I2480
sg3303
I22
sg3304
I0
sg3305
(lp3321
S'ksiazka'
p3322
ag3308
aS'piwowarstwo'
p3323
asg3309
I11
sg3310
I6
sg3311
S'Kobieta'
p3324
sg3313
I19
sg3314
I3
sg3315
I2
sg3316
(lp3325
I60
aI98
aI86
asbag0
(g3298
g2
Ntp3326
Rp3327
(dp3328
g3302
I3000
sg3303
I47
sg3304
I0
sg3305
(lp3329
S'fotografia'
p3330
aS'ogrodnictwo'
p3331
aS'moda'
p3332
asg3309
I11
sg3310
I6
sg3311
g3324
sg3313
I13
sg3314
I11
sg3315
I1
sg3316
(lp3333
I7
aI69
aI17
asbag0
(g3298
g2
Ntp3334
Rp3335
(dp3336
g3302
I4500
sg3303
I61
sg3304
I0
sg3305
(lp3337
g3323
aS'gry'
p3338
ag3323
asg3309
I4
sg3310
I13
sg3311
g3324
sg3313
I20
sg3314
I17
sg3315
I3
sg3316
(lp3339
I84
aI21
aI91
asbag0
(g3298
g2
Ntp3340
Rp3341
(dp3342
g3302
I6000
sg3303
I34
sg3304
I0
sg3305
(lp3343
g3322
aS'koncerty'
p3344
aS'muzykaklasyczna'
p3345
asg3309
I10
sg3310
I11
sg3311
g3324
sg3313
I4
sg3314
I16
sg3315
I4
sg3316
(lp3346
I23
aI64
aI11
asbag0
(g3298
g2
Ntp3347
Rp3348
(dp3349
g3302
I6000
sg3303
I44
sg3304
I0
sg3305
(lp3350
S'nightlife'
p3351
ag3351
ag3308
asg3309
I11
sg3310
I3
sg3311
g3324
sg3313
I14
sg3314
I16
sg3315
I2
sg3316
(lp3352
I98
aI17
aI47
asbag0
(g3298
g2
Ntp3353
Rp3354
(dp3355
g3302
I4560
sg3303
I64
sg3304
I0
sg3305
(lp3356
g3323
aS'malarstwo'
p3357
ag3344
asg3309
I6
sg3310
I14
sg3311
g3312
sg3313
I11
sg3314
I4
sg3315
I2
sg3316
(lp3358
I43
aI61
aI10
asbag0
(g3298
g2
Ntp3359
Rp3360
(dp3361
g3302
I4560
sg3303
I51
sg3304
I0
sg3305
(lp3362
S'historiapolski'
p3363
ag3332
aS'motoryzacja'
p3364
asg3309
I5
sg3310
I2
sg3311
g3312
sg3313
I8
sg3314
I12
sg3315
I2
sg3316
(lp3365
I12
aI93
aI21
asbag0
(g3298
g2
Ntp3366
Rp3367
(dp3368
g3302
I4500
sg3303
I73
sg3304
I0
sg3305
(lp3369
g3307
aS'sport'
p3370
ag3370
asg3309
I6
sg3310
I16
sg3311
g3324
sg3313
I13
sg3314
I11
sg3315
I3
sg3316
(lp3371
I18
aI79
aI37
asbag0
(g3298
g2
Ntp3372
Rp3373
(dp3374
g3302
I0
sg3303
I6
sg3304
I0
sg3305
(lp3375
g3308
aS'historia'
p3376
ag3351
asg3309
I16
sg3310
I13
sg3311
g3324
sg3313
I10
sg3314
I8
sg3315
I0
sg3316
(lp3377
I6
aI52
aI3
asbag0
(g3298
g2
Ntp3378
Rp3379
(dp3380
g3302
I4500
sg3303
I56
sg3304
I0
sg3305
(lp3381
g3330
ag3330
ag3376
asg3309
I5
sg3310
I21
sg3311
g3324
sg3313
I12
sg3314
I4
sg3315
I3
sg3316
(lp3382
I31
aI95
aI89
asbag0
(g3298
g2
Ntp3383
Rp3384
(dp3385
g3302
I4500
sg3303
I26
sg3304
I0
sg3305
(lp3386
S'finanse'
p3387
aS'kulturaalternatywna'
p3388
aS'kultura'
p3389
asg3309
I17
sg3310
I19
sg3311
g3324
sg3313
I20
sg3314
I5
sg3315
I4
sg3316
(lp3390
I80
aI14
aI9
asbag0
(g3298
g2
Ntp3391
Rp3392
(dp3393
g3302
I3000
sg3303
I54
sg3304
I0
sg3305
(lp3394
g3338
ag3338
ag3344
asg3309
I6
sg3310
I9
sg3311
g3312
sg3313
I21
sg3314
I6
sg3315
I1
sg3316
(lp3395
I75
aI17
aI59
asbag0
(g3298
g2
Ntp3396
Rp3397
(dp3398
g3302
I3000
sg3303
I44
sg3304
I0
sg3305
(lp3399
S'gotowanie'
p3400
ag3332
aS'teatr'
p3401
asg3309
I6
sg3310
I16
sg3311
g3324
sg3313
I15
sg3314
I8
sg3315
I1
sg3316
(lp3402
I74
aI79
aI66
asbag0
(g3298
g2
Ntp3403
Rp3404
(dp3405
g3302
I4500
sg3303
I78
sg3304
I0
sg3305
(lp3406
g3389
ag3307
ag3332
asg3309
I6
sg3310
I19
sg3311
g3324
sg3313
I6
sg3314
I7
sg3315
I3
sg3316
(lp3407
I47
aI97
aI5
asbag0
(g3298
g2
Ntp3408
Rp3409
(dp3410
g3302
I4500
sg3303
I44
sg3304
I0
sg3305
(lp3411
g3401
ag3351
ag3330
asg3309
I14
sg3310
I10
sg3311
g3324
sg3313
I22
sg3314
I10
sg3315
I3
sg3316
(lp3412
I63
aI72
aI57
asbag0
(g3298
g2
Ntp3413
Rp3414
(dp3415
g3302
I7500
sg3303
I47
sg3304
I0
sg3305
(lp3416
g3307
ag3323
ag3357
asg3309
I17
sg3310
I18
sg3311
g3324
sg3313
I16
sg3314
I4
sg3315
I4
sg3316
(lp3417
I67
aI87
aI71
asbag0
(g3298
g2
Ntp3418
Rp3419
(dp3420
g3302
I5600
sg3303
I38
sg3304
I0
sg3305
(lp3421
g3323
ag3387
ag3376
asg3309
I7
sg3310
I5
sg3311
g3324
sg3313
I16
sg3314
I4
sg3315
I2
sg3316
(lp3422
I37
aI65
aI39
asbag0
(g3298
g2
Ntp3423
Rp3424
(dp3425
g3302
I2480
sg3303
I24
sg3304
I0
sg3305
(lp3426
g3345
ag3322
ag3338
asg3309
I3
sg3310
I3
sg3311
g3324
sg3313
I8
sg3314
I14
sg3315
I2
sg3316
(lp3427
I48
aI47
aI99
asbag0
(g3298
g2
Ntp3428
Rp3429
(dp3430
g3302
I0
sg3303
I17
sg3304
I0
sg3305
(lp3431
g3331
ag3308
ag3370
asg3309
I9
sg3310
I6
sg3311
g3312
sg3313
I13
sg3314
I11
sg3315
I0
sg3316
(lp3432
I90
aI5
aI64
asbag0
(g3298
g2
Ntp3433
Rp3434
(dp3435
g3302
I5700
sg3303
I91
sg3304
I0
sg3305
(lp3436
g3332
ag3338
ag3387
asg3309
I12
sg3310
I3
sg3311
g3324
sg3313
I13
sg3314
I11
sg3315
I4
sg3316
(lp3437
I7
aI15
aI7
asbag0
(g3298
g2
Ntp3438
Rp3439
(dp3440
g3302
I5700
sg3303
I57
sg3304
I0
sg3305
(lp3441
g3322
ag3400
aS'ksiazki'
p3442
asg3309
I16
sg3310
I6
sg3311
g3324
sg3313
I20
sg3314
I14
sg3315
I4
sg3316
(lp3443
I93
aI4
aI52
asbag0
(g3298
g2
Ntp3444
Rp3445
(dp3446
g3302
I4500
sg3303
I49
sg3304
I0
sg3305
(lp3447
g3323
ag3344
ag3322
asg3309
I9
sg3310
I13
sg3311
g3324
sg3313
I20
sg3314
I5
sg3315
I3
sg3316
(lp3448
I15
aI57
aI67
asbag0
(g3298
g2
Ntp3449
Rp3450
(dp3451
g3302
I0
sg3303
I1
sg3304
I0
sg3305
(lp3452
g3322
ag3388
ag3370
asg3309
I3
sg3310
I21
sg3311
g3312
sg3313
I20
sg3314
I5
sg3315
I0
sg3316
(lp3453
I77
aI97
aI96
asbag0
(g3298
g2
Ntp3454
Rp3455
(dp3456
g3302
I3000
sg3303
I82
sg3304
I0
sg3305
(lp3457
g3387
ag3322
ag3345
asg3309
I7
sg3310
I22
sg3311
g3324
sg3313
I8
sg3314
I12
sg3315
I1
sg3316
(lp3458
I10
aI79
aI33
asbag0
(g3298
g2
Ntp3459
Rp3460
(dp3461
g3302
I4800
sg3303
I33
sg3304
I0
sg3305
(lp3462
g3308
ag3323
ag3322
asg3309
I16
sg3310
I6
sg3311
g3312
sg3313
I10
sg3314
I2
sg3315
I2
sg3316
(lp3463
I62
aI47
aI69
asbag0
(g3298
g2
Ntp3464
Rp3465
(dp3466
g3302
I0
sg3303
I18
sg3304
I0
sg3305
(lp3467
g3344
ag3387
ag3351
asg3309
I11
sg3310
I22
sg3311
g3324
sg3313
I8
sg3314
I5
sg3315
I0
sg3316
(lp3468
I35
aI6
aI96
asbag0
(g3298
g2
Ntp3469
Rp3470
(dp3471
g3302
I4560
sg3303
I77
sg3304
I0
sg3305
(lp3472
g3376
ag3307
ag3338
asg3309
I5
sg3310
I18
sg3311
g3324
sg3313
I12
sg3314
I4
sg3315
I2
sg3316
(lp3473
I50
aI35
aI47
asbag0
(g3298
g2
Ntp3474
Rp3475
(dp3476
g3302
I5700
sg3303
I51
sg3304
I0
sg3305
(lp3477
g3389
ag3388
ag3330
asg3309
I6
sg3310
I3
sg3311
g3312
sg3313
I8
sg3314
I5
sg3315
I4
sg3316
(lp3478
I94
aI64
aI83
asbag0
(g3298
g2
Ntp3479
Rp3480
(dp3481
g3302
I0
sg3303
I5
sg3304
I0
sg3305
(lp3482
g3370
ag3345
ag3357
asg3309
I12
sg3310
I12
sg3311
g3312
sg3313
I8
sg3314
I14
sg3315
I0
sg3316
(lp3483
I11
aI3
aI70
asbag0
(g3298
g2
Ntp3484
Rp3485
(dp3486
g3302
I4500
sg3303
I41
sg3304
I0
sg3305
(lp3487
S'boks'
p3488
ag3401
ag3488
asg3309
I18
sg3310
I15
sg3311
g3312
sg3313
I14
sg3314
I8
sg3315
I3
sg3316
(lp3489
I45
aI14
aI36
asbag0
(g3298
g2
Ntp3490
Rp3491
(dp3492
g3302
I0
sg3303
I0
sg3304
I0
sg3305
(lp3493
g3338
ag3308
ag3400
asg3309
I9
sg3310
I6
sg3311
g3324
sg3313
I8
sg3314
I14
sg3315
I0
sg3316
(lp3494
I38
aI80
aI35
asbag0
(g3298
g2
Ntp3495
Rp3496
(dp3497
g3302
I3600
sg3303
I28
sg3304
I0
sg3305
(lp3498
g3331
ag3323
ag3376
asg3309
I12
sg3310
I20
sg3311
g3312
sg3313
I11
sg3314
I4
sg3315
I2
sg3316
(lp3499
I4
aI76
aI64
asbag0
(g3298
g2
Ntp3500
Rp3501
(dp3502
g3302
I7500
sg3303
I50
sg3304
I0
sg3305
(lp3503
g3351
ag3345
ag3338
asg3309
I11
sg3310
I18
sg3311
g3324
sg3313
I9
sg3314
I12
sg3315
I4
sg3316
(lp3504
I35
aI88
aI7
asbag0
(g3298
g2
Ntp3505
Rp3506
(dp3507
g3302
I0
sg3303
I7
sg3304
I0
sg3305
(lp3508
g3330
ag3400
ag3332
asg3309
I3
sg3310
I6
sg3311
g3324
sg3313
I22
sg3314
I9
sg3315
I0
sg3316
(lp3509
I53
aI11
aI67
asbag0
(g3298
g2
Ntp3510
Rp3511
(dp3512
g3302
I3000
sg3303
I55
sg3304
I0
sg3305
(lp3513
g3331
ag3322
ag3401
asg3309
I7
sg3310
I22
sg3311
g3312
sg3313
I10
sg3314
I8
sg3315
I1
sg3316
(lp3514
I42
aI1
aI21
asbag0
(g3298
g2
Ntp3515
Rp3516
(dp3517
g3302
I3000
sg3303
I33
sg3304
I0
sg3305
(lp3518
g3357
ag3376
ag3344
asg3309
I3
sg3310
I3
sg3311
g3312
sg3313
I11
sg3314
I12
sg3315
I1
sg3316
(lp3519
I5
aI20
aI53
asbag0
(g3298
g2
Ntp3520
Rp3521
(dp3522
g3302
I4800
sg3303
I33
sg3304
I0
sg3305
(lp3523
g3332
ag3370
ag3376
asg3309
I10
sg3310
I18
sg3311
g3312
sg3313
I14
sg3314
I4
sg3315
I2
sg3316
(lp3524
I11
aI61
aI61
asbag0
(g3298
g2
Ntp3525
Rp3526
(dp3527
g3302
I3000
sg3303
I64
sg3304
I0
sg3305
(lp3528
g3351
ag3363
ag3401
asg3309
I15
sg3310
I20
sg3311
g3324
sg3313
I15
sg3314
I8
sg3315
I1
sg3316
(lp3529
I26
aI28
aI60
asbag0
(g3298
g2
Ntp3530
Rp3531
(dp3532
g3302
I0
sg3303
I8
sg3304
I0
sg3305
(lp3533
g3338
ag3323
ag3344
asg3309
I18
sg3310
I22
sg3311
g3324
sg3313
I11
sg3314
I12
sg3315
I0
sg3316
(lp3534
I61
aI94
aI75
asbag0
(g3298
g2
Ntp3535
Rp3536
(dp3537
g3302
I5700
sg3303
I84
sg3304
I0
sg3305
(lp3538
g3332
ag3401
ag3332
asg3309
I3
sg3310
I6
sg3311
g3312
sg3313
I6
sg3314
I7
sg3315
I4
sg3316
(lp3539
I65
aI5
aI39
asbag0
(g3298
g2
Ntp3540
Rp3541
(dp3542
g3302
I0
sg3303
I14
sg3304
I0
sg3305
(lp3543
g3345
ag3364
ag3363
asg3309
I11
sg3310
I3
sg3311
g3312
sg3313
I4
sg3314
I16
sg3315
I0
sg3316
(lp3544
I45
aI78
aI90
asbag0
(g3298
g2
Ntp3545
Rp3546
(dp3547
g3302
I7500
sg3303
I49
sg3304
I0
sg3305
(lp3548
g3388
ag3331
ag3308
asg3309
I10
sg3310
I18
sg3311
g3312
sg3313
I20
sg3314
I14
sg3315
I4
sg3316
(lp3549
I51
aI95
aI95
asbag0
(g3298
g2
Ntp3550
Rp3551
(dp3552
g3302
I5700
sg3303
I66
sg3304
I0
sg3305
(lp3553
g3357
ag3322
ag3323
asg3309
I7
sg3310
I22
sg3311
g3324
sg3313
I9
sg3314
I14
sg3315
I4
sg3316
(lp3554
I17
aI28
aI85
asbag0
(g3298
g2
Ntp3555
Rp3556
(dp3557
g3302
I5000
sg3303
I39
sg3304
I0
sg3305
(lp3558
g3364
ag3323
ag3308
asg3309
I15
sg3310
I20
sg3311
g3324
sg3313
I15
sg3314
I8
sg3315
I3
sg3316
(lp3559
I20
aI32
aI33
asbag0
(g3298
g2
Ntp3560
Rp3561
(dp3562
g3302
I4500
sg3303
I63
sg3304
I0
sg3305
(lp3563
g3488
ag3387
ag3364
asg3309
I3
sg3310
I6
sg3311
g3312
sg3313
I8
sg3314
I14
sg3315
I3
sg3316
(lp3564
I46
aI89
aI56
asbag0
(g3298
g2
Ntp3565
Rp3566
(dp3567
g3302
I3000
sg3303
I60
sg3304
I0
sg3305
(lp3568
g3344
ag3331
ag3400
asg3309
I5
sg3310
I21
sg3311
g3312
sg3313
I16
sg3314
I4
sg3315
I1
sg3316
(lp3569
I91
aI76
aI82
asbag0
(g3298
g2
Ntp3570
Rp3571
(dp3572
g3302
I0
sg3303
I15
sg3304
I0
sg3305
(lp3573
g3322
ag3488
ag3376
asg3309
I8
sg3310
I19
sg3311
g3324
sg3313
I14
sg3314
I3
sg3315
I0
sg3316
(lp3574
I40
aI24
aI66
asbag0
(g3298
g2
Ntp3575
Rp3576
(dp3577
g3302
I4500
sg3303
I65
sg3304
I0
sg3305
(lp3578
g3308
ag3387
ag3308
asg3309
I3
sg3310
I20
sg3311
g3324
sg3313
I14
sg3314
I8
sg3315
I3
sg3316
(lp3579
I69
aI61
aI90
asbag0
(g3298
g2
Ntp3580
Rp3581
(dp3582
g3302
I4500
sg3303
I72
sg3304
I0
sg3305
(lp3583
g3389
ag3307
ag3376
asg3309
I8
sg3310
I20
sg3311
g3312
sg3313
I15
sg3314
I8
sg3315
I3
sg3316
(lp3584
I81
aI36
aI97
asbag0
(g3298
g2
Ntp3585
Rp3586
(dp3587
g3302
I3600
sg3303
I28
sg3304
I0
sg3305
(lp3588
g3387
ag3400
ag3331
asg3309
I10
sg3310
I8
sg3311
g3312
sg3313
I8
sg3314
I12
sg3315
I2
sg3316
(lp3589
I83
aI87
aI27
asbag0
(g3298
g2
Ntp3590
Rp3591
(dp3592
g3302
I3000
sg3303
I35
sg3304
I0
sg3305
(lp3593
g3364
ag3488
ag3387
asg3309
I16
sg3310
I7
sg3311
g3312
sg3313
I20
sg3314
I14
sg3315
I1
sg3316
(lp3594
I64
aI6
aI89
asbag0
(g3298
g2
Ntp3595
Rp3596
(dp3597
g3302
I3000
sg3303
I86
sg3304
I0
sg3305
(lp3598
g3442
ag3308
ag3388
asg3309
I12
sg3310
I12
sg3311
g3324
sg3313
I9
sg3314
I12
sg3315
I1
sg3316
(lp3599
I38
aI48
aI86
asbag0
(g3298
g2
Ntp3600
Rp3601
(dp3602
g3302
I7500
sg3303
I41
sg3304
I0
sg3305
(lp3603
g3345
ag3338
ag3307
asg3309
I12
sg3310
I18
sg3311
g3324
sg3313
I12
sg3314
I4
sg3315
I4
sg3316
(lp3604
I98
aI37
aI73
asbag0
(g3298
g2
Ntp3605
Rp3606
(dp3607
g3302
I7000
sg3303
I40
sg3304
I0
sg3305
(lp3608
g3322
ag3338
ag3332
asg3309
I16
sg3310
I13
sg3311
g3312
sg3313
I14
sg3314
I8
sg3315
I4
sg3316
(lp3609
I29
aI40
aI78
asbag0
(g3298
g2
Ntp3610
Rp3611
(dp3612
g3302
I4500
sg3303
I60
sg3304
I0
sg3305
(lp3613
g3307
ag3388
ag3351
asg3309
I8
sg3310
I8
sg3311
g3312
sg3313
I22
sg3314
I9
sg3315
I3
sg3316
(lp3614
I41
aI27
aI10
asbag0
(g3298
g2
Ntp3615
Rp3616
(dp3617
g3302
I7500
sg3303
I47
sg3304
I0
sg3305
(lp3618
g3351
ag3389
ag3357
asg3309
I16
sg3310
I20
sg3311
g3324
sg3313
I22
sg3314
I10
sg3315
I4
sg3316
(lp3619
I61
aI35
aI76
asbag0
(g3298
g2
Ntp3620
Rp3621
(dp3622
g3302
I0
sg3303
I0
sg3304
I0
sg3305
(lp3623
g3388
ag3331
ag3307
asg3309
I16
sg3310
I15
sg3311
g3324
sg3313
I8
sg3314
I12
sg3315
I0
sg3316
(lp3624
I9
aI97
aI72
asbag0
(g3298
g2
Ntp3625
Rp3626
(dp3627
g3302
I4560
sg3303
I64
sg3304
I0
sg3305
(lp3628
g3330
ag3389
ag3387
asg3309
I6
sg3310
I12
sg3311
g3324
sg3313
I20
sg3314
I17
sg3315
I2
sg3316
(lp3629
I52
aI17
aI70
asbag0
(g3298
g2
Ntp3630
Rp3631
(dp3632
g3302
I4500
sg3303
I83
sg3304
I0
sg3305
(lp3633
g3323
ag3370
ag3389
asg3309
I10
sg3310
I6
sg3311
g3324
sg3313
I22
sg3314
I10
sg3315
I3
sg3316
(lp3634
I24
aI14
aI43
asbag0
(g3298
g2
Ntp3635
Rp3636
(dp3637
g3302
I5700
sg3303
I97
sg3304
I0
sg3305
(lp3638
g3357
ag3332
ag3338
asg3309
I12
sg3310
I22
sg3311
g3324
sg3313
I10
sg3314
I2
sg3315
I4
sg3316
(lp3639
I40
aI25
aI47
asbag0
(g3298
g2
Ntp3640
Rp3641
(dp3642
g3302
I3100
sg3303
I25
sg3304
I0
sg3305
(lp3643
g3370
ag3307
ag3363
asg3309
I9
sg3310
I18
sg3311
g3312
sg3313
I9
sg3314
I12
sg3315
I4
sg3316
(lp3644
I47
aI48
aI48
asbag0
(g3298
g2
Ntp3645
Rp3646
(dp3647
g3302
I4500
sg3303
I45
sg3304
I0
sg3305
(lp3648
g3332
ag3376
ag3338
asg3309
I18
sg3310
I22
sg3311
g3324
sg3313
I15
sg3314
I8
sg3315
I3
sg3316
(lp3649
I28
aI69
aI24
asbag0
(g3298
g2
Ntp3650
Rp3651
(dp3652
g3302
I2480
sg3303
I23
sg3304
I0
sg3305
(lp3653
g3322
ag3357
ag3488
asg3309
I8
sg3310
I11
sg3311
g3312
sg3313
I8
sg3314
I5
sg3315
I2
sg3316
(lp3654
I23
aI58
aI54
asbag0
(g3298
g2
Ntp3655
Rp3656
(dp3657
g3302
I5700
sg3303
I75
sg3304
I0
sg3305
(lp3658
g3344
ag3387
ag3363
asg3309
I9
sg3310
I16
sg3311
g3324
sg3313
I20
sg3314
I5
sg3315
I4
sg3316
(lp3659
I3
aI54
aI21
asbag0
(g3298
g2
Ntp3660
Rp3661
(dp3662
g3302
I5700
sg3303
I66
sg3304
I0
sg3305
(lp3663
g3338
ag3344
ag3331
asg3309
I14
sg3310
I12
sg3311
g3324
sg3313
I14
sg3314
I8
sg3315
I4
sg3316
(lp3664
I90
aI18
aI67
asbag0
(g3298
g2
Ntp3665
Rp3666
(dp3667
g3302
I3600
sg3303
I28
sg3304
I0
sg3305
(lp3668
g3388
ag3307
ag3400
asg3309
I8
sg3310
I20
sg3311
g3312
sg3313
I13
sg3314
I6
sg3315
I2
sg3316
(lp3669
I22
aI44
aI2
asbag0
(g3298
g2
Ntp3670
Rp3671
(dp3672
g3302
I5000
sg3303
I38
sg3304
I0
sg3305
(lp3673
g3338
ag3332
ag3345
asg3309
I13
sg3310
I3
sg3311
g3324
sg3313
I4
sg3314
I16
sg3315
I3
sg3316
(lp3674
I15
aI33
aI19
asbag0
(g3298
g2
Ntp3675
Rp3676
(dp3677
g3302
I5000
sg3303
I40
sg3304
I0
sg3305
(lp3678
g3338
ag3400
ag3331
asg3309
I6
sg3310
I18
sg3311
g3312
sg3313
I14
sg3314
I16
sg3315
I3
sg3316
(lp3679
I63
aI90
aI1
asbag0
(g3298
g2
Ntp3680
Rp3681
(dp3682
g3302
I4560
sg3303
I59
sg3304
I0
sg3305
(lp3683
g3351
ag3308
ag3323
asg3309
I11
sg3310
I16
sg3311
g3324
sg3313
I20
sg3314
I14
sg3315
I2
sg3316
(lp3684
I34
aI93
aI70
asbag0
(g3298
g2
Ntp3685
Rp3686
(dp3687
g3302
I7500
sg3303
I44
sg3304
I0
sg3305
(lp3688
g3376
ag3331
ag3370
asg3309
I14
sg3310
I7
sg3311
g3324
sg3313
I20
sg3314
I5
sg3315
I4
sg3316
(lp3689
I70
aI6
aI45
asbag0
(g3298
g2
Ntp3690
Rp3691
(dp3692
g3302
I5700
sg3303
I72
sg3304
I0
sg3305
(lp3693
g3488
ag3338
ag3387
asg3309
I3
sg3310
I10
sg3311
g3324
sg3313
I8
sg3314
I5
sg3315
I4
sg3316
(lp3694
I10
aI90
aI6
asbag0
(g3298
g2
Ntp3695
Rp3696
(dp3697
g3302
I5000
sg3303
I40
sg3304
I0
sg3305
(lp3698
g3322
ag3388
ag3376
asg3309
I7
sg3310
I3
sg3311
g3324
sg3313
I14
sg3314
I8
sg3315
I3
sg3316
(lp3699
I15
aI78
aI88
asbag0
(g3298
g2
Ntp3700
Rp3701
(dp3702
g3302
I6000
sg3303
I44
sg3304
I0
sg3305
(lp3703
g3332
ag3345
ag3351
asg3309
I14
sg3310
I13
sg3311
g3324
sg3313
I8
sg3314
I14
sg3315
I2
sg3316
(lp3704
I16
aI96
aI45
asbag0
(g3298
g2
Ntp3705
Rp3706
(dp3707
g3302
I5700
sg3303
I54
sg3304
I0
sg3305
(lp3708
g3364
ag3331
ag3345
asg3309
I11
sg3310
I16
sg3311
g3324
sg3313
I20
sg3314
I5
sg3315
I4
sg3316
(lp3709
I64
aI65
aI76
asbag0
(g3298
g2
Ntp3710
Rp3711
(dp3712
g3302
I0
sg3303
I5
sg3304
I0
sg3305
(lp3713
g3363
ag3308
ag3332
asg3309
I16
sg3310
I5
sg3311
g3312
sg3313
I11
sg3314
I12
sg3315
I0
sg3316
(lp3714
I71
aI98
aI72
asbag0
(g3298
g2
Ntp3715
Rp3716
(dp3717
g3302
I4560
sg3303
I83
sg3304
I0
sg3305
(lp3718
g3338
ag3330
ag3323
asg3309
I6
sg3310
I9
sg3311
g3312
sg3313
I11
sg3314
I4
sg3315
I2
sg3316
(lp3719
I7
aI59
aI77
asbag0
(g3298
g2
Ntp3720
Rp3721
(dp3722
g3302
I0
sg3303
I1
sg3304
I0
sg3305
(lp3723
g3323
ag3332
ag3331
asg3309
I9
sg3310
I13
sg3311
g3324
sg3313
I8
sg3314
I14
sg3315
I0
sg3316
(lp3724
I62
aI18
aI56
asbag0
(g3298
g2
Ntp3725
Rp3726
(dp3727
g3302
I2480
sg3303
I25
sg3304
I0
sg3305
(lp3728
g3330
ag3363
ag3345
asg3309
I4
sg3310
I13
sg3311
g3324
sg3313
I14
sg3314
I3
sg3315
I2
sg3316
(lp3729
I35
aI57
aI2
asbag0
(g3298
g2
Ntp3730
Rp3731
(dp3732
g3302
I3000
sg3303
I32
sg3304
I0
sg3305
(lp3733
g3308
ag3308
ag3338
asg3309
I4
sg3310
I8
sg3311
g3324
sg3313
I11
sg3314
I12
sg3315
I1
sg3316
(lp3734
I25
aI67
aI71
asbag0
(g3298
g2
Ntp3735
Rp3736
(dp3737
g3302
I5700
sg3303
I83
sg3304
I0
sg3305
(lp3738
g3401
ag3388
ag3308
asg3309
I6
sg3310
I3
sg3311
g3324
sg3313
I14
sg3314
I8
sg3315
I4
sg3316
(lp3739
I41
aI17
aI77
asbag0
(g3298
g2
Ntp3740
Rp3741
(dp3742
g3302
I4560
sg3303
I82
sg3304
I0
sg3305
(lp3743
g3322
ag3364
ag3308
asg3309
I5
sg3310
I16
sg3311
g3312
sg3313
I14
sg3314
I16
sg3315
I2
sg3316
(lp3744
I57
aI5
aI68
asbag0
(g3298
g2
Ntp3745
Rp3746
(dp3747
g3302
I4500
sg3303
I70
sg3304
I0
sg3305
(lp3748
g3370
ag3331
ag3388
asg3309
I11
sg3310
I3
sg3311
g3324
sg3313
I14
sg3314
I4
sg3315
I3
sg3316
(lp3749
I23
aI66
aI20
asbag0
(g3298
g2
Ntp3750
Rp3751
(dp3752
g3302
I7500
sg3303
I41
sg3304
I0
sg3305
(lp3753
g3308
ag3401
ag3442
asg3309
I10
sg3310
I13
sg3311
g3324
sg3313
I12
sg3314
I4
sg3315
I4
sg3316
(lp3754
I87
aI91
aI98
asbag0
(g3298
g2
Ntp3755
Rp3756
(dp3757
g3302
I3500
sg3303
I27
sg3304
I0
sg3305
(lp3758
g3387
ag3345
ag3344
asg3309
I4
sg3310
I10
sg3311
g3312
sg3313
I11
sg3314
I12
sg3315
I3
sg3316
(lp3759
I18
aI79
aI8
asbag0
(g3298
g2
Ntp3760
Rp3761
(dp3762
g3302
I5700
sg3303
I80
sg3304
I0
sg3305
(lp3763
g3387
ag3364
ag3400
asg3309
I8
sg3310
I13
sg3311
g3324
sg3313
I9
sg3314
I12
sg3315
I4
sg3316
(lp3764
I3
aI85
aI52
asbag0
(g3298
g2
Ntp3765
Rp3766
(dp3767
g3302
I5600
sg3303
I40
sg3304
I0
sg3305
(lp3768
g3308
ag3388
ag3344
asg3309
I9
sg3310
I18
sg3311
g3312
sg3313
I20
sg3314
I14
sg3315
I2
sg3316
(lp3769
I17
aI33
aI36
asbag0
(g3298
g2
Ntp3770
Rp3771
(dp3772
g3302
I0
sg3303
I4
sg3304
I0
sg3305
(lp3773
g3442
ag3344
ag3344
asg3309
I2
sg3310
I14
sg3311
g3312
sg3313
I22
sg3314
I9
sg3315
I0
sg3316
(lp3774
I2
aI33
aI31
asbag0
(g3298
g2
Ntp3775
Rp3776
(dp3777
g3302
I0
sg3303
I0
sg3304
I0
sg3305
(lp3778
g3389
ag3351
ag3442
asg3309
I9
sg3310
I6
sg3311
g3312
sg3313
I10
sg3314
I8
sg3315
I0
sg3316
(lp3779
I23
aI25
aI63
asbag0
(g3298
g2
Ntp3780
Rp3781
(dp3782
g3302
I4500
sg3303
I55
sg3304
I0
sg3305
(lp3783
g3332
ag3308
ag3488
asg3309
I14
sg3310
I17
sg3311
g3312
sg3313
I9
sg3314
I14
sg3315
I3
sg3316
(lp3784
I88
aI97
aI48
asbag0
(g3298
g2
Ntp3785
Rp3786
(dp3787
g3302
I4500
sg3303
I54
sg3304
I0
sg3305
(lp3788
g3387
ag3351
ag3488
asg3309
I8
sg3310
I19
sg3311
g3312
sg3313
I8
sg3314
I5
sg3315
I3
sg3316
(lp3789
I58
aI78
aI68
asbag0
(g3298
g2
Ntp3790
Rp3791
(dp3792
g3302
I4500
sg3303
I65
sg3304
I0
sg3305
(lp3793
g3400
ag3364
ag3323
asg3309
I16
sg3310
I15
sg3311
g3312
sg3313
I11
sg3314
I14
sg3315
I3
sg3316
(lp3794
I10
aI88
aI35
asbag0
(g3298
g2
Ntp3795
Rp3796
(dp3797
g3302
I3000
sg3303
I52
sg3304
I0
sg3305
(lp3798
g3345
ag3322
ag3370
asg3309
I14
sg3310
I15
sg3311
g3312
sg3313
I14
sg3314
I16
sg3315
I1
sg3316
(lp3799
I16
aI22
aI0
asbag0
(g3298
g2
Ntp3800
Rp3801
(dp3802
g3302
I0
sg3303
I17
sg3304
I0
sg3305
(lp3803
g3331
ag3488
ag3351
asg3309
I16
sg3310
I13
sg3311
g3312
sg3313
I16
sg3314
I4
sg3315
I0
sg3316
(lp3804
I3
aI84
aI70
asbag0
(g3298
g2
Ntp3805
Rp3806
(dp3807
g3302
I4800
sg3303
I31
sg3304
I0
sg3305
(lp3808
g3442
ag3376
ag3364
asg3309
I10
sg3310
I11
sg3311
g3312
sg3313
I14
sg3314
I4
sg3315
I2
sg3316
(lp3809
I42
aI8
aI53
asbag0
(g3298
g2
Ntp3810
Rp3811
(dp3812
g3302
I5700
sg3303
I52
sg3304
I0
sg3305
(lp3813
g3351
ag3401
ag3322
asg3309
I3
sg3310
I21
sg3311
g3312
sg3313
I14
sg3314
I8
sg3315
I4
sg3316
(lp3814
I7
aI73
aI88
asbag0
(g3298
g2
Ntp3815
Rp3816
(dp3817
g3302
I4800
sg3303
I31
sg3304
I0
sg3305
(lp3818
g3344
ag3387
ag3332
asg3309
I11
sg3310
I3
sg3311
g3312
sg3313
I22
sg3314
I10
sg3315
I2
sg3316
(lp3819
I59
aI99
aI55
asbag0
(g3298
g2
Ntp3820
Rp3821
(dp3822
g3302
I4500
sg3303
I60
sg3304
I0
sg3305
(lp3823
g3322
ag3357
ag3307
asg3309
I8
sg3310
I16
sg3311
g3312
sg3313
I10
sg3314
I8
sg3315
I3
sg3316
(lp3824
I57
aI37
aI84
asbag0
(g3298
g2
Ntp3825
Rp3826
(dp3827
g3302
I3000
sg3303
I57
sg3304
I0
sg3305
(lp3828
g3387
ag3338
ag3357
asg3309
I10
sg3310
I18
sg3311
g3312
sg3313
I11
sg3314
I12
sg3315
I1
sg3316
(lp3829
I65
aI48
aI45
asbag0
(g3298
g2
Ntp3830
Rp3831
(dp3832
g3302
I7500
sg3303
I46
sg3304
I0
sg3305
(lp3833
g3357
ag3345
ag3400
asg3309
I11
sg3310
I20
sg3311
g3312
sg3313
I11
sg3314
I4
sg3315
I4
sg3316
(lp3834
I70
aI12
aI32
asbasb.